; generated by ARM C/C++ Compiler, 5.03 [Build 76]
; commandline ArmCC [--list --split_sections --debug -c --asm --interleave -o.\flash\obj\protocal.o --asm_dir=.\Flash\List\ --list_dir=.\Flash\List\ --depend=.\flash\obj\protocal.d --cpu=Cortex-M3 --apcs=interwork -O0 --diag_suppress=870 -I..\..\Libraries\CMSIS\Device\ST\STM32F10x\Include -I..\..\Libraries\STM32F10x_StdPeriph_Driver\inc -I..\..\User\bsp -I..\..\User -I..\..\Libraries\CMSIS\Include -I..\..\RTX\inc -I..\..\RTX\portable -I..\..\User\CpuFlash -I..\..\User\CRC8_16 -I..\..\User\DS1302 -I..\..\User\DWT -I..\..\User\IIC -I..\..\User\IWDG -I..\..\User\Key -I..\..\User\Led -I..\..\User\Net -I..\..\User\Protocal -I..\..\User\Reader -I..\..\User\SPI -I..\..\User\Timer -I..\..\User\Uart -I..\..\User\Param -D__MICROLIB -DUSE_STDPERIPH_DRIVER -DSTM32F10X_HD --omf_browse=.\flash\obj\protocal.crf ..\..\User\Protocal\protocal.c]
                          THUMB

                          AREA ||i.MCU_Reset||, CODE, READONLY, ALIGN=2

                  MCU_Reset PROC
;;;8      //软复位
;;;9      void MCU_Reset(void)
000000  b671              CPSID    f
;;;10     {
;;;11         __disable_fault_irq();      
;;;12         NVIC_SystemReset();// STM32 软复位
000002  bf00              NOP      
000004  f3bf8f4f          DSB      
000008  4806              LDR      r0,|L1.36|
00000a  6800              LDR      r0,[r0,#0]
00000c  f40060e0          AND      r0,r0,#0x700
000010  4905              LDR      r1,|L1.40|
000012  4308              ORRS     r0,r0,r1
000014  1d00              ADDS     r0,r0,#4
000016  4903              LDR      r1,|L1.36|
000018  6008              STR      r0,[r1,#0]
00001a  f3bf8f4f          DSB      
00001e  bf00              NOP      
000020  bf00              NOP      
                  |L1.34|
000022  e7fe              B        |L1.34|
;;;13     }
;;;14     
                          ENDP

                  |L1.36|
                          DCD      0xe000ed0c
                  |L1.40|
                          DCD      0x05fa0000

                          AREA ||i.SendDataToServer||, CODE, READONLY, ALIGN=2

                  SendDataToServer PROC
;;;648    //把数据发送到服务器
;;;649    void SendDataToServer(uint8_t flag, uint8_t rw, uint8_t *data, uint16_t len)
000000  b5f8              PUSH     {r3-r7,lr}
;;;650    {
000002  4605              MOV      r5,r0
000004  460e              MOV      r6,r1
000006  4617              MOV      r7,r2
000008  461c              MOV      r4,r3
;;;651        //uint8_t ret;
;;;652        if(g_tNetData.status == e_Link)
00000a  480c              LDR      r0,|L2.60|
00000c  7800              LDRB     r0,[r0,#0]  ; g_tNetData
00000e  2804              CMP      r0,#4
000010  d112              BNE      |L2.56|
;;;653        {
;;;654            makeCommmand(flag, rw, data, len);
000012  4623              MOV      r3,r4
000014  463a              MOV      r2,r7
000016  4631              MOV      r1,r6
000018  4628              MOV      r0,r5
00001a  f7fffffe          BL       makeCommmand
;;;655            sendto(0, g_tNetData.buf, 10+len+3, g_tParam.netCfg.server_ip, g_tParam.netCfg.server_port);//在断网情况下调用发送会延时
00001e  4808              LDR      r0,|L2.64|
000020  8b40              LDRH     r0,[r0,#0x1a]
000022  9000              STR      r0,[sp,#0]
000024  f104000d          ADD      r0,r4,#0xd
000028  b282              UXTH     r2,r0
00002a  4b05              LDR      r3,|L2.64|
00002c  3320              ADDS     r3,r3,#0x20
00002e  4903              LDR      r1,|L2.60|
000030  1d09              ADDS     r1,r1,#4
000032  2000              MOVS     r0,#0
000034  f7fffffe          BL       sendto
                  |L2.56|
;;;656    //        DEBUG(COM1, &ret, 1);
;;;657        }
;;;658    }
000038  bdf8              POP      {r3-r7,pc}
;;;659    
                          ENDP

00003a  0000              DCW      0x0000
                  |L2.60|
                          DCD      g_tNetData
                  |L2.64|
                          DCD      g_tParam

                          AREA ||i.makeCommmand||, CODE, READONLY, ALIGN=2

                  makeCommmand PROC
;;;15     //构造命令格式,把数据写入网络的buf数组中
;;;16     void makeCommmand(uint8_t cmdFlag, uint8_t rw, uint8_t *data, uint16_t len)
000000  e92d47f0          PUSH     {r4-r10,lr}
;;;17     {
000004  4607              MOV      r7,r0
000006  4688              MOV      r8,r1
000008  4691              MOV      r9,r2
00000a  461c              MOV      r4,r3
;;;18         uint16_t i;
;;;19         uint8_t crcRet;
;;;20         
;;;21         g_tNetData.buf[0]=0xA5;
00000c  20a5              MOVS     r0,#0xa5
00000e  4920              LDR      r1,|L3.144|
000010  7108              STRB     r0,[r1,#4]
;;;22         g_tNetData.buf[1]=0xA5;
000012  21a5              MOVS     r1,#0xa5
000014  481e              LDR      r0,|L3.144|
000016  7141              STRB     r1,[r0,#5]
;;;23         g_tNetData.buf[2]=cmdFlag;
000018  7187              STRB     r7,[r0,#6]
;;;24         g_tNetData.buf[3]=g_tParam.netCfg.mcuID[0];
00001a  481e              LDR      r0,|L3.148|
00001c  f8901024          LDRB     r1,[r0,#0x24]
000020  481b              LDR      r0,|L3.144|
000022  71c1              STRB     r1,[r0,#7]
;;;25         g_tNetData.buf[4]=g_tParam.netCfg.mcuID[1];
000024  481b              LDR      r0,|L3.148|
000026  f8901025          LDRB     r1,[r0,#0x25]
00002a  4819              LDR      r0,|L3.144|
00002c  7201              STRB     r1,[r0,#8]
;;;26         g_tNetData.buf[5]=g_tParam.netCfg.mcuID[2];
00002e  4819              LDR      r0,|L3.148|
000030  f8901026          LDRB     r1,[r0,#0x26]
000034  4816              LDR      r0,|L3.144|
000036  7241              STRB     r1,[r0,#9]
;;;27         g_tNetData.buf[6]=g_tParam.netCfg.mcuID[3];
000038  4816              LDR      r0,|L3.148|
00003a  f8901027          LDRB     r1,[r0,#0x27]
00003e  4814              LDR      r0,|L3.144|
000040  7281              STRB     r1,[r0,#0xa]
;;;28         g_tNetData.buf[7]=rw;
000042  f880800b          STRB     r8,[r0,#0xb]
;;;29         g_tNetData.buf[8]=len >> 8;
000046  1221              ASRS     r1,r4,#8
000048  7301              STRB     r1,[r0,#0xc]
;;;30         g_tNetData.buf[9]=(len & 0xFF);
00004a  7344              STRB     r4,[r0,#0xd]
;;;31         
;;;32         for(i=0; i<len;i++)
00004c  2500              MOVS     r5,#0
00004e  e008              B        |L3.98|
                  |L3.80|
;;;33         {
;;;34             g_tNetData.buf[10+i] = data[i];
000050  f8192005          LDRB     r2,[r9,r5]
000054  f105000a          ADD      r0,r5,#0xa
000058  490d              LDR      r1,|L3.144|
00005a  1d09              ADDS     r1,r1,#4
00005c  540a              STRB     r2,[r1,r0]
00005e  1c68              ADDS     r0,r5,#1              ;32
000060  b285              UXTH     r5,r0                 ;32
                  |L3.98|
000062  42a5              CMP      r5,r4                 ;32
000064  dbf4              BLT      |L3.80|
;;;35         }
;;;36         
;;;37         crcRet = Get_Crc8(g_tNetData.buf, 10+len);
000066  f104000a          ADD      r0,r4,#0xa
00006a  b281              UXTH     r1,r0
00006c  4808              LDR      r0,|L3.144|
00006e  1d00              ADDS     r0,r0,#4
000070  f7fffffe          BL       Get_Crc8
000074  4606              MOV      r6,r0
;;;38         
;;;39         g_tNetData.buf[10+len+0] = crcRet;
000076  f104000a          ADD      r0,r4,#0xa
00007a  4905              LDR      r1,|L3.144|
00007c  1d09              ADDS     r1,r1,#4
00007e  540e              STRB     r6,[r1,r0]
;;;40         g_tNetData.buf[10+len+1] = 0x5A;
000080  225a              MOVS     r2,#0x5a
000082  1c40              ADDS     r0,r0,#1
000084  540a              STRB     r2,[r1,r0]
;;;41         g_tNetData.buf[10+len+2] = 0x5A;   
000086  1c40              ADDS     r0,r0,#1
000088  540a              STRB     r2,[r1,r0]
;;;42     }
00008a  e8bd87f0          POP      {r4-r10,pc}
;;;43     
                          ENDP

00008e  0000              DCW      0x0000
                  |L3.144|
                          DCD      g_tNetData
                  |L3.148|
                          DCD      g_tParam

                          AREA ||i.processCommand||, CODE, READONLY, ALIGN=2

                  processCommand PROC
;;;44     //执行命令,写入参数时，还要把参数更新到IIC存储中
;;;45     void processCommand(uint8_t *data, uint16_t len)
000000  b503              PUSH     {r0,r1,lr}
;;;46     {
000002  b083              SUB      sp,sp,#0xc
;;;47         uint8_t ret=0;
000004  2000              MOVS     r0,#0
000006  9002              STR      r0,[sp,#8]
;;;48         //uint8_t temp[512];
;;;49         
;;;50         //响应服务器的广播命令
;;;51         if(data[2] == 0x00)
000008  9803              LDR      r0,[sp,#0xc]
00000a  7880              LDRB     r0,[r0,#2]
00000c  b978              CBNZ     r0,|L4.46|
;;;52         {
;;;53             ret = g_tDoorStatus.doorA.feedBackStatus;
00000e  48fe              LDR      r0,|L4.1032|
000010  7840              LDRB     r0,[r0,#1]  ; g_tDoorStatus
000012  9002              STR      r0,[sp,#8]
;;;54             ret = g_tDoorStatus.doorB.feedBackStatus << 4;
000014  48fc              LDR      r0,|L4.1032|
000016  78c0              LDRB     r0,[r0,#3]
000018  0700              LSLS     r0,r0,#28
00001a  0e00              LSRS     r0,r0,#24
00001c  9002              STR      r0,[sp,#8]
;;;55             SendDataToServer(data[2], 0, &ret, 1);
00001e  9803              LDR      r0,[sp,#0xc]
000020  7880              LDRB     r0,[r0,#2]
000022  2301              MOVS     r3,#1
000024  aa02              ADD      r2,sp,#8
000026  2100              MOVS     r1,#0
000028  9001              STR      r0,[sp,#4]
00002a  f7fffffe          BL       SendDataToServer
                  |L4.46|
;;;56         }
;;;57         
;;;58         //先判断ID号
;;;59         if(data[0] != 0xA5 || data[1] != 0xA5  || \
00002e  9803              LDR      r0,[sp,#0xc]
000030  7800              LDRB     r0,[r0,#0]
000032  28a5              CMP      r0,#0xa5
000034  d12b              BNE      |L4.142|
000036  9803              LDR      r0,[sp,#0xc]
000038  7840              LDRB     r0,[r0,#1]
00003a  28a5              CMP      r0,#0xa5
00003c  d127              BNE      |L4.142|
;;;60            data[3] != g_tParam.netCfg.mcuID[0] || \
00003e  9803              LDR      r0,[sp,#0xc]
000040  78c1              LDRB     r1,[r0,#3]
000042  48f2              LDR      r0,|L4.1036|
000044  f8900024          LDRB     r0,[r0,#0x24]
000048  4281              CMP      r1,r0
00004a  d120              BNE      |L4.142|
;;;61            data[4] != g_tParam.netCfg.mcuID[1] || \
00004c  9803              LDR      r0,[sp,#0xc]
00004e  7901              LDRB     r1,[r0,#4]
000050  48ee              LDR      r0,|L4.1036|
000052  f8900025          LDRB     r0,[r0,#0x25]
000056  4281              CMP      r1,r0
000058  d119              BNE      |L4.142|
;;;62            data[5] != g_tParam.netCfg.mcuID[2] || \
00005a  9803              LDR      r0,[sp,#0xc]
00005c  7941              LDRB     r1,[r0,#5]
00005e  48eb              LDR      r0,|L4.1036|
000060  f8900026          LDRB     r0,[r0,#0x26]
000064  4281              CMP      r1,r0
000066  d112              BNE      |L4.142|
;;;63            data[6] != g_tParam.netCfg.mcuID[3] || \
000068  9803              LDR      r0,[sp,#0xc]
00006a  7981              LDRB     r1,[r0,#6]
00006c  48e7              LDR      r0,|L4.1036|
00006e  f8900027          LDRB     r0,[r0,#0x27]
000072  4281              CMP      r1,r0
000074  d10b              BNE      |L4.142|
;;;64            data[len-2] != 0x5A || data[len-1] != 0x5A)
000076  9804              LDR      r0,[sp,#0x10]
000078  1e80              SUBS     r0,r0,#2
00007a  9903              LDR      r1,[sp,#0xc]
00007c  5c08              LDRB     r0,[r1,r0]
00007e  285a              CMP      r0,#0x5a
000080  d105              BNE      |L4.142|
000082  9804              LDR      r0,[sp,#0x10]
000084  1e40              SUBS     r0,r0,#1
000086  9903              LDR      r1,[sp,#0xc]
000088  5c08              LDRB     r0,[r1,r0]
00008a  285a              CMP      r0,#0x5a
00008c  d001              BEQ      |L4.146|
                  |L4.142|
;;;65         {
;;;66             return;
;;;67         }
;;;68         
;;;69         //对于设置命令，要进行参数有效性判断
;;;70         switch(data[2])
;;;71         {
;;;72         
;;;73         /*
;;;74             *移到上面
;;;75             case 0x00://心跳包和echo
;;;76             ret = g_tDoorStatus.doorA.feedBackStatus;
;;;77             ret = g_tDoorStatus.doorB.feedBackStatus << 4;
;;;78             SendDataToServer(data[2], 0, &ret, 1);
;;;79             break;*/
;;;80         
;;;81         //0x01用来主动上传刷卡的卡号和读头号
;;;82         
;;;83         case 0x02://读写实时时钟DS1302芯片的时间
;;;84             if(data[7] == 0)
;;;85             {
;;;86                 SendDataToServer(data[2], 0, g_tRunInfo.time, 5);
;;;87             }
;;;88             else if(data[7] == 1)
;;;89             {
;;;90                 //判断时间范围
;;;91                 if(data[10]<17 || data[10]>99 || \
;;;92                    data[11]<=0 || data[11]>12 || \
;;;93                    data[12]<=0 || data[12]>31 || \
;;;94                    data[13]<=0 || data[13]>24 || \
;;;95                    data[14]<=0 || data[14]>60)
;;;96                 {
;;;97                     ret = 0xAA;
;;;98                     SendDataToServer(data[2], 1, &ret, 1);
;;;99                     return;
;;;100                }
;;;101                ds1302_settime(&data[10], 5);
;;;102                ret = 0x55;
;;;103                SendDataToServer(data[2], 1, &ret, 1);
;;;104            }
;;;105            break;
;;;106            
;;;107        case 0x03://本地网络ip配置
;;;108            if(data[7] == 0)
;;;109            {
;;;110                SendDataToServer(data[2], 0, g_tParam.netCfg.local_ip, 4);
;;;111            }
;;;112            else if(data[7] == 1)
;;;113            {
;;;114                memcpy(g_tParam.netCfg.local_ip, &data[10], 4);
;;;115                g_tParam.updateNetCfg(&g_tParam.netCfg, e_local_ip);
;;;116                //重新设置网络
;;;117                set_default(&g_tParam.netCfg);
;;;118                ret = 0x55;
;;;119                SendDataToServer(data[2], 1, &ret, 1);
;;;120            } 
;;;121            break;
;;;122        
;;;123        case 0x04://本地网络port配置//重启板子生效
;;;124            if(data[7] == 0)
;;;125            {
;;;126                data[10] = g_tParam.netCfg.local_port >> 8;
;;;127                data[11] = g_tParam.netCfg.local_port & 0xFF;
;;;128                SendDataToServer(data[2], 0, &data[10], 2);
;;;129            }
;;;130            else if(data[7] == 1)
;;;131            {
;;;132                g_tParam.netCfg.local_port = (data[10]<<8) + data[10+1];
;;;133                g_tParam.updateNetCfg(&g_tParam.netCfg, e_local_port);
;;;134                ret = 0x55;
;;;135                SendDataToServer(data[2], 1, &ret, 1);
;;;136            } 
;;;137            break;
;;;138            
;;;139        case 0x05://服务器网络ip配置
;;;140            if(data[7] == 0)
;;;141            {
;;;142                SendDataToServer(data[2], 0, g_tParam.netCfg.server_ip, 4);
;;;143            }
;;;144            else if(data[7] == 1)
;;;145            {
;;;146                memcpy(g_tParam.netCfg.server_ip, &data[10], 4);
;;;147                g_tParam.updateNetCfg(&g_tParam.netCfg, e_server_ip);
;;;148                ret = 0x55;
;;;149                SendDataToServer(data[2], 1, &ret, 1);
;;;150            } 
;;;151            break;
;;;152        
;;;153        case 0x06://服务器网络port配置
;;;154            if(data[7] == 0)
;;;155            {
;;;156                data[10] = g_tParam.netCfg.server_port >> 8;
;;;157                data[11] = g_tParam.netCfg.server_port & 0xFF;
;;;158                SendDataToServer(data[2], 0, &data[10], 2);
;;;159            }
;;;160            else if(data[7] == 1)
;;;161            {
;;;162                g_tParam.netCfg.server_port = (data[10]<<8) + data[10+1];
;;;163                g_tParam.updateNetCfg(&g_tParam.netCfg, e_server_port);
;;;164                ret = 0x55;
;;;165                SendDataToServer(data[2], 1, &ret, 1);
;;;166            } 
;;;167            break;
;;;168            
;;;169        case 0x07://开门时长
;;;170            if(data[7] == 0)
;;;171            {
;;;172                SendDataToServer(data[2], 0, &g_tParam.systemCfg.openTime, 1);
;;;173            }
;;;174            else if(data[7] == 1)
;;;175            {
;;;176                if(data[10]==0)
;;;177                {
;;;178                    ret = 0xAA;
;;;179                    SendDataToServer(data[2], 1, &ret, 1);
;;;180                    return;
;;;181                }
;;;182                memcpy(&g_tParam.systemCfg.openTime, &data[10], 1);
;;;183                g_tParam.updateSystemCfg(&g_tParam.systemCfg, e_openTime);
;;;184                ret = 0x55;
;;;185                SendDataToServer(data[2], 1, &ret, 1);
;;;186            } 
;;;187            break;
;;;188        
;;;189        case 0x08://关门时长
;;;190            if(data[7] == 0)
;;;191            {
;;;192                SendDataToServer(data[2], 0, &g_tParam.systemCfg.waitTime, 1);
;;;193            }
;;;194            else if(data[7] == 1)
;;;195            {
;;;196                //add 3-6
;;;197                //关闭时长为0，表示不检测反馈
;;;198                memcpy(&g_tParam.systemCfg.waitTime, &data[10], 1);
;;;199                g_tParam.updateSystemCfg(&g_tParam.systemCfg, e_waitTime);
;;;200                ret = 0x55;
;;;201                SendDataToServer(data[2], 1, &ret, 1);
;;;202            } 
;;;203            break;
;;;204            
;;;205        case 0x09://读头A关系
;;;206            if(data[7] == 0)
;;;207            {
;;;208                SendDataToServer(data[2], 0, &g_tParam.relation.relationA.reader_switcher, 1);
;;;209            }
;;;210            else if(data[7] == 1)
;;;211            {
;;;212                memcpy(&g_tParam.relation.relationA.reader_switcher, &data[10], 1);
;;;213                g_tParam.updateRelation(&g_tParam.relation, e_READER_A);
;;;214                ret = 0x55;
;;;215                SendDataToServer(data[2], 1, &ret, 1);
;;;216            } 
;;;217            break;
;;;218            
;;;219        case 0x0A://读头B关系
;;;220            if(data[7] == 0)
;;;221            {
;;;222                SendDataToServer(data[2], 0, &g_tParam.relation.relationB.reader_switcher, 1);
;;;223            }
;;;224            else if(data[7] == 1)
;;;225            {
;;;226                memcpy(&g_tParam.relation.relationB.reader_switcher, &data[10], 1);
;;;227                g_tParam.updateRelation(&g_tParam.relation, e_READER_B);
;;;228                ret = 0x55;
;;;229                SendDataToServer(data[2], 1, &ret, 1);
;;;230            } 
;;;231            break;
;;;232            
;;;233        case 0x0B://按键A关系
;;;234            if(data[7] == 0)
;;;235            {
;;;236                SendDataToServer(data[2], 0, &g_tParam.relation.relationA.button_switcher, 1);
;;;237            }
;;;238            else if(data[7] == 1)
;;;239            {
;;;240                memcpy(&g_tParam.relation.relationA.button_switcher, &data[10], 1);
;;;241                g_tParam.updateRelation(&g_tParam.relation, e_BUTTON_A);
;;;242                ret = 0x55;
;;;243                SendDataToServer(data[2], 1, &ret, 1);
;;;244            } 
;;;245            break;
;;;246            
;;;247        case 0x0C://按键B关系
;;;248            if(data[7] == 0)
;;;249            {
;;;250                SendDataToServer(data[2], 0, &g_tParam.relation.relationB.button_switcher, 1);
;;;251            }
;;;252            else if(data[7] == 1)
;;;253            {
;;;254                memcpy(&g_tParam.relation.relationB.button_switcher, &data[10], 1);
;;;255                g_tParam.updateRelation(&g_tParam.relation, e_BUTTON_B);
;;;256                ret = 0x55;
;;;257                SendDataToServer(data[2], 1, &ret, 1);
;;;258            } 
;;;259            break;
;;;260    //8个开门方式的配置        
;;;261        case 0x0D://互锁
;;;262            if(data[7] == 0)
;;;263            {
;;;264                SendDataToServer(data[2], 0, &g_tParam.systemCfg.multipleOpenCfg[0], 1);
;;;265            }
;;;266            else if(data[7] ==1 )
;;;267            {
;;;268                //互锁、首卡、多重卡不能同时开启
;;;269                if(data[10]>1 || \
;;;270                    g_tParam.systemCfg.multipleOpenCfg[1]==1 || \
;;;271                    g_tParam.systemCfg.multipleOpenCfg[2]==1)
;;;272                {
;;;273                    ret = 0xAA;
;;;274                    SendDataToServer(data[2], 1, &ret, 1);
;;;275                    return;
;;;276                }
;;;277                memcpy(&g_tParam.systemCfg.multipleOpenCfg[0], &data[10], 1);
;;;278                g_tParam.updateSystemCfg(&g_tParam.systemCfg, e_interlock);
;;;279                ret = 0x55;
;;;280                SendDataToServer(data[2], 1, &ret, 1);
;;;281            } 
;;;282            break;
;;;283            
;;;284        case 0x0E://首卡
;;;285            if(data[7] == 0)
;;;286            {
;;;287                SendDataToServer(data[2], 0, &g_tParam.systemCfg.multipleOpenCfg[1], 1);
;;;288            }
;;;289            else if(data[7] == 1)
;;;290            {
;;;291                //互锁、首卡、多重卡不能同时开启
;;;292                if(data[10]>1 || \
;;;293                    g_tParam.systemCfg.multipleOpenCfg[0]==1 || \
;;;294                    g_tParam.systemCfg.multipleOpenCfg[2]==1)
;;;295                {
;;;296                    ret = 0xAA;
;;;297                    SendDataToServer(data[2], 1, &ret, 1);
;;;298                    return;
;;;299                }
;;;300                memcpy(&g_tParam.systemCfg.multipleOpenCfg[1], &data[10], 1);
;;;301                g_tParam.updateSystemCfg(&g_tParam.systemCfg, e_firstCard);
;;;302                ret = 0x55;
;;;303                SendDataToServer(data[2], 1, &ret, 1);
;;;304            } 
;;;305            break;
;;;306            
;;;307        case 0x0F://多重卡
;;;308            if(data[7] == 0)
;;;309            {
;;;310                SendDataToServer(data[2], 0, &g_tParam.systemCfg.multipleOpenCfg[2], 1);
;;;311            }
;;;312            else if(data[7] == 1)
;;;313            {
;;;314                //互锁、首卡、多重卡不能同时开启
;;;315                if((data[10]>>4)<2 || (data[10]>>4)>10 ||(data[10]&0x0F)>1 || \
;;;316                    g_tParam.systemCfg.multipleOpenCfg[0]==1 || \
;;;317                    g_tParam.systemCfg.multipleOpenCfg[1]==1)           
;;;318                {
;;;319                    ret = 0xAA;
;;;320                    SendDataToServer(data[2], 1, &ret, 1);
;;;321                    return;
;;;322                }
;;;323                memcpy(&g_tParam.systemCfg.multipleOpenCfg[2], &data[10], 1);
;;;324                g_tParam.updateSystemCfg(&g_tParam.systemCfg, e_multipleCard);
;;;325                ret = 0x55;
;;;326                SendDataToServer(data[2], 1, &ret, 1);
;;;327            } 
;;;328            break;
;;;329            
;;;330        case 0x10://超级卡
;;;331            if(data[7] == 0)
;;;332            {
;;;333                SendDataToServer(data[2], 0, &g_tParam.systemCfg.multipleOpenCfg[3], 1);
;;;334            }
;;;335            else if(data[7] == 1)
;;;336            {
;;;337                if(data[10]>1)
;;;338                {
;;;339                    ret = 0xAA;
;;;340                    SendDataToServer(data[2], 1, &ret, 1);
;;;341                    return;
;;;342                }
;;;343                memcpy(&g_tParam.systemCfg.multipleOpenCfg[3], &data[10], 1);
;;;344                g_tParam.updateSystemCfg(&g_tParam.systemCfg, e_superCard);
;;;345                ret = 0x55;
;;;346                SendDataToServer(data[2], 1, &ret, 1);
;;;347            } 
;;;348            break;
;;;349            
;;;350        case 0x11://超级密码
;;;351            if(data[7] == 0)
;;;352            {
;;;353                SendDataToServer(data[2], 0, &g_tParam.systemCfg.multipleOpenCfg[4], 1);
;;;354            }
;;;355            else if(data[7] == 1)
;;;356            {
;;;357                if(data[10]>1)
;;;358                {
;;;359                    ret = 0xAA;
;;;360                    SendDataToServer(data[2], 1, &ret, 1);
;;;361                    return;
;;;362                }
;;;363                memcpy(&g_tParam.systemCfg.multipleOpenCfg[4], &data[10], 1);
;;;364                g_tParam.updateSystemCfg(&g_tParam.systemCfg, e_superPassword);
;;;365                ret = 0x55;
;;;366                SendDataToServer(data[2], 1, &ret, 1);
;;;367            } 
;;;368            break;
;;;369            
;;;370        case 0x12://胁迫卡
;;;371            if(data[7] == 0)
;;;372            {
;;;373                SendDataToServer(data[2], 0, &g_tParam.systemCfg.multipleOpenCfg[5], 1);
;;;374            }
;;;375            else if(data[7] == 1)
;;;376            {
;;;377                if(data[10]>1)
;;;378                {
;;;379                    ret = 0xAA;
;;;380                    SendDataToServer(data[2], 1, &ret, 1);
;;;381                    return;
;;;382                }
;;;383                memcpy(&g_tParam.systemCfg.multipleOpenCfg[5], &data[10], 1);
;;;384                g_tParam.updateSystemCfg(&g_tParam.systemCfg, e_threatCard);
;;;385                ret = 0x55;
;;;386                SendDataToServer(data[2], 1, &ret, 1);
;;;387            } 
;;;388            break;
;;;389            
;;;390        case 0x13://胁迫码
;;;391            if(data[7] == 0)
;;;392            {
;;;393                SendDataToServer(data[2], 0, &g_tParam.systemCfg.multipleOpenCfg[6], 1);
;;;394            }
;;;395            else if(data[7] == 1)
;;;396            {
;;;397                if(data[10]>1)
;;;398                {
;;;399                    ret = 0xAA;
;;;400                    SendDataToServer(data[2], 1, &ret, 1);
;;;401                    return;
;;;402                }
;;;403                memcpy(&g_tParam.systemCfg.multipleOpenCfg[6], &data[10], 1);
;;;404                g_tParam.updateSystemCfg(&g_tParam.systemCfg, e_threatPassword);
;;;405                ret = 0x55;
;;;406                SendDataToServer(data[2], 1, &ret, 1);
;;;407            } 
;;;408            break;
;;;409            
;;;410        case 0x14://指纹模块
;;;411            if(data[7] == 0)
;;;412            {
;;;413                SendDataToServer(data[2], 0, &g_tParam.systemCfg.multipleOpenCfg[7], 1);
;;;414            }
;;;415            else if(data[7] == 1)
;;;416            {
;;;417                if(data[10]>1)
;;;418                {
;;;419                    ret = 0xAA;
;;;420                    SendDataToServer(data[2], 1, &ret, 1);
;;;421                    return;
;;;422                }
;;;423                memcpy(&g_tParam.systemCfg.multipleOpenCfg[7], &data[10], 1);
;;;424                g_tParam.updateSystemCfg(&g_tParam.systemCfg, e_finger);
;;;425                ret = 0x55;
;;;426                SendDataToServer(data[2], 1, &ret, 1);
;;;427            } 
;;;428            break;
;;;429    
;;;430    //9个卡号的配置       
;;;431        case 0x15://首卡
;;;432            if(data[7] == 0)
;;;433            {
;;;434                SendDataToServer(data[2], 0, g_tParam.multipleCardID.firstCardID, 3);
;;;435            }
;;;436            else if(data[7] == 1)
;;;437            {
;;;438                memcpy(g_tParam.multipleCardID.firstCardID, &data[10], 3);
;;;439                g_tParam.updateMultipleCardID(g_tParam.multipleCardID.firstCardID, 3, e_firstCardID);
;;;440                ret = 0x55;
;;;441                SendDataToServer(data[2], 1, &ret, 1);
;;;442            }
;;;443            break;
;;;444            
;;;445        case 0x16://超级卡
;;;446            if(data[7] == 0)
;;;447            {
;;;448                SendDataToServer(data[2], 0, g_tParam.multipleCardID.superCardID, 3);
;;;449            }
;;;450            else if(data[7] == 1)
;;;451            {
;;;452                memcpy(g_tParam.multipleCardID.superCardID, &data[10], 3);
;;;453                g_tParam.updateMultipleCardID(g_tParam.multipleCardID.superCardID, 3, e_superCardID);
;;;454                ret = 0x55;
;;;455                SendDataToServer(data[2], 1, &ret, 1);
;;;456            }
;;;457            break;
;;;458            
;;;459        case 0x17://超级密码
;;;460            if(data[7] == 0)
;;;461            {
;;;462                SendDataToServer(data[2], 0, g_tParam.multipleCardID.superPasswordID, 3);
;;;463            }
;;;464            else if(data[7] == 1)
;;;465            {
;;;466                memcpy(g_tParam.multipleCardID.superPasswordID, &data[10], 3);
;;;467                g_tParam.updateMultipleCardID(g_tParam.multipleCardID.superPasswordID, 3, e_superPasswordID);
;;;468                ret = 0x55;
;;;469                SendDataToServer(data[2], 1, &ret, 1);
;;;470            }
;;;471            break;
;;;472            
;;;473        case 0x18://胁迫卡,3张卡
;;;474            if(data[7] == 0)
;;;475            {
;;;476                SendDataToServer(data[2], 0, g_tParam.multipleCardID.threatCardID, 9);
;;;477            }
;;;478            else if(data[7] == 1)
;;;479            {
;;;480                memcpy(g_tParam.multipleCardID.threatCardID, &data[10], 9);
;;;481                g_tParam.updateMultipleCardID(g_tParam.multipleCardID.threatCardID, 9, e_threatCardID);
;;;482                ret = 0x55;
;;;483                SendDataToServer(data[2], 1, &ret, 1);
;;;484            }
;;;485            break;
;;;486            
;;;487        case 0x19://胁迫码
;;;488            if(data[7] == 0)
;;;489            {
;;;490                SendDataToServer(data[2], 0, g_tParam.multipleCardID.threatPasswordID, 3);
;;;491            }
;;;492            else if(data[7] == 1)
;;;493            {
;;;494                memcpy(g_tParam.multipleCardID.threatPasswordID, &data[10], 3);
;;;495                g_tParam.updateMultipleCardID(g_tParam.multipleCardID.threatPasswordID, 3, e_threatPasswordID);
;;;496                ret = 0x55;
;;;497                SendDataToServer(data[2], 1, &ret, 1);
;;;498            }
;;;499            break;
;;;500            
;;;501        case 0x1A://按键密码
;;;502            if(data[7] == 0)
;;;503            {
;;;504                SendDataToServer(data[2], 0, g_tParam.multipleCardID.keyBoardID, 3);
;;;505            }
;;;506            else if(data[7] == 1)
;;;507            {
;;;508                memcpy(g_tParam.multipleCardID.keyBoardID, &data[10], 3);
;;;509                g_tParam.updateMultipleCardID(g_tParam.multipleCardID.keyBoardID, 3, e_keyBoardID);
;;;510                ret = 0x55;
;;;511                SendDataToServer(data[2], 1, &ret, 1);
;;;512            }
;;;513            break;
;;;514            
;;;515        case 0x1B://多重卡
;;;516            if(data[7] == 0)
;;;517            {
;;;518                SendDataToServer(data[2], 0, g_tParam.multipleCardID.multipleCardID, 30);
;;;519            }
;;;520            else if(data[7] == 1)
;;;521            {
;;;522                memcpy(g_tParam.multipleCardID.multipleCardID, &data[10], 30);
;;;523                g_tParam.updateMultipleCardID(g_tParam.multipleCardID.multipleCardID, 30, e_multipleCardID);
;;;524                ret = 0x55;
;;;525                SendDataToServer(data[2], 1, &ret, 1);
;;;526            }
;;;527            break;
;;;528            
;;;529        case 0x1C://指纹ID，第9个字节表示第几包
;;;530            if(data[7] == 0)
;;;531            {
;;;532                memcpy(&data[10], &g_tParam.multipleCardID.fingerID[data[9]*300], 300);
;;;533                SendDataToServer(data[2], 0, &data[10], 300);
;;;534            }
;;;535            else if(data[7] == 1)
;;;536            {
;;;537                if(data[9] <= 4)
;;;538                {
;;;539                    memcpy(&g_tParam.multipleCardID.fingerID[data[9]*300], &data[10], 300);
;;;540                }
;;;541                if(data[9] == 4)//0,1,2,3,4
;;;542                {
;;;543                    //5个包发完
;;;544                    g_tParam.updateMultipleCardID(g_tParam.multipleCardID.fingerID, 1500, e_fingerID);
;;;545                }
;;;546                ret = 0x55;
;;;547                SendDataToServer(data[2], 1, &ret, 1);
;;;548            }
;;;549            break;
;;;550            
;;;551        case 0x1D://普通卡，第9个字节表示第几包
;;;552            if(data[7] == 0)
;;;553            {
;;;554                memcpy(&data[10], &g_tParam.multipleCardID.generalCardID[data[9]*300], 300);
;;;555                SendDataToServer(data[2], 0, &data[10], 300);
;;;556            }
;;;557            else if(data[7] == 1)
;;;558            {
;;;559                if(data[9] <= 4)
;;;560                {
;;;561                    memcpy(&g_tParam.multipleCardID.generalCardID[data[9]*300], &data[10], 300);
;;;562                }
;;;563                if(data[9] == 4)//0,1,2,3,4
;;;564                {
;;;565                    //5个包发完
;;;566                    g_tParam.updateMultipleCardID(g_tParam.multipleCardID.generalCardID, 1500, e_generalCardID);
;;;567                }
;;;568                ret = 0x55;
;;;569                SendDataToServer(data[2], 1, &ret, 1);
;;;570            }
;;;571            break;
;;;572            
;;;573        case 0x1E://升级文件
;;;574            //length的2位用来表示第几包
;;;575            //spi分配前256k字节,(0--255)
;;;576            //ret = data[9];//page num
;;;577            if(data[9]%4 == 0)
;;;578            {
;;;579                sf_EraseSector(data[9]*1024);//扇区擦除4k字节
;;;580            }
;;;581            sf_PageWrite(&data[10], data[9]*1024, 1024);//按照每包1024字节大小顺序写入spi flash
;;;582            ret = 0x55;
;;;583            SendDataToServer(data[2], 1, &ret, 1);
;;;584    
;;;585            break;
;;;586        
;;;587        case 0x1F://重置所有参数
;;;588            resetParam();
;;;589            ret = 0x55;
;;;590            SendDataToServer(data[2], 1, &ret, 1);
;;;591            break;
;;;592        
;;;593        case 0x20://远程开门,A/B        
;;;594            if((data[10]==0x01) && (g_tDoorStatus.doorA.switcherStatus == NC)&& (g_tDoorStatus.doorB.switcherStatus == NC))
;;;595            {           
;;;596                g_tRunInfo.remoteOpen = data[10];//低a高b
;;;597                //发送远程开门的事件标志 
;;;598                os_evt_set(REMOTE_OPEN_BIT, HandleTaskButton);
;;;599                ret = 0x55;
;;;600            }
;;;601            else if((data[10]==0x10) && (g_tDoorStatus.doorA.switcherStatus == NC)&& (g_tDoorStatus.doorB.switcherStatus == NC))
;;;602            {           
;;;603                g_tRunInfo.remoteOpen = data[10];//低a高b
;;;604                //发送远程开门的事件标志 
;;;605                os_evt_set(REMOTE_OPEN_BIT, HandleTaskButton);
;;;606                ret = 0x55;
;;;607            }
;;;608            else ret = 0xAA;
;;;609            SendDataToServer(data[2], 1, &ret, 1);
;;;610            break;
;;;611            
;;;612        case 0x21://重启（并升级）
;;;613            ret = 0x55;
;;;614            SendDataToServer(data[2], 1, &ret, 1);
;;;615            //改写升级标志
;;;616            ee_WriteOneBytes(1, 0);//1表示需要升级,0表示在iic的首地址
;;;617            //关门放狗
;;;618            //bsp_DelayMS(25000);//25>20
;;;619            //add 3-7调用系统复位指令   
;;;620            MCU_Reset();
;;;621            break;
;;;622        
;;;623        //0x22作为报警消息
;;;624        case 0x23://历史记录
;;;625            //length两位作为第几包
;;;626            if(((data[8]<<8) + data[9]) > (g_tSF.TotalSize/1024 - 256))
;;;627            {
;;;628                ret = 0xAA;
;;;629                SendDataToServer(data[2], 0, &ret, 1);
;;;630            }
;;;631            else
;;;632            {
;;;633                sf_ReadBuffer(&data[10], ((data[8]<<8) + data[9] + 256)*1024, 1024);//读spi的数据
;;;634                SendDataToServer(data[2], 0, &data[10], 1024);
;;;635            }
;;;636            break;
;;;637            
;;;638        case 0x24://读取版本信息
;;;639            ret=VERSION;
;;;640            SendDataToServer(data[2], 1, &ret, 1);
;;;641            break;
;;;642                          
;;;643        default:
;;;644            break;
;;;645        }
;;;646    }
00008e  b005              ADD      sp,sp,#0x14
000090  bd00              POP      {pc}
                  |L4.146|
000092  9803              LDR      r0,[sp,#0xc]          ;70
000094  7880              LDRB     r0,[r0,#2]            ;70
000096  1e80              SUBS     r0,r0,#2              ;70
000098  2823              CMP      r0,#0x23              ;70
00009a  f08086c5          BCS.W    |L4.3624|
00009e  e8dff010          TBH      [pc,r0,LSL #1]        ;70
0000a2  0023              DCW      0x0023
0000a4  007600a2          DCW      0x0076,0x00a2
0000a8  00d600fe          DCW      0x00d6,0x00fe
0000ac  01320169          DCW      0x0132,0x0169
0000b0  019101c0          DCW      0x0191,0x01c0
0000b4  01e7020f          DCW      0x01e7,0x020f
0000b8  0237027b          DCW      0x0237,0x027b
0000bc  02bf0311          DCW      0x02bf,0x0311
0000c0  03490381          DCW      0x0349,0x0381
0000c4  03bb03f2          DCW      0x03bb,0x03f2
0000c8  042a0457          DCW      0x042a,0x0457
0000cc  048304af          DCW      0x0483,0x04af
0000d0  04df050b          DCW      0x04df,0x050b
0000d4  05370564          DCW      0x0537,0x0564
0000d8  05b90608          DCW      0x05b9,0x0608
0000dc  062f063c          DCW      0x062f,0x063c
0000e0  067506c3          DCW      0x0675,0x06c3
0000e4  068506b8          DCW      0x0685,0x06b8
0000e8  9803              LDR      r0,[sp,#0xc]          ;84
0000ea  79c0              LDRB     r0,[r0,#7]            ;84
0000ec  b940              CBNZ     r0,|L4.256|
0000ee  9803              LDR      r0,[sp,#0xc]          ;86
0000f0  7880              LDRB     r0,[r0,#2]            ;86
0000f2  2305              MOVS     r3,#5                 ;86
0000f4  4ac6              LDR      r2,|L4.1040|
0000f6  2100              MOVS     r1,#0                 ;86
0000f8  9001              STR      r0,[sp,#4]            ;86
0000fa  f7fffffe          BL       SendDataToServer
0000fe  e045              B        |L4.396|
                  |L4.256|
000100  9803              LDR      r0,[sp,#0xc]          ;88
000102  79c0              LDRB     r0,[r0,#7]            ;88
000104  2801              CMP      r0,#1                 ;88
000106  d141              BNE      |L4.396|
000108  9803              LDR      r0,[sp,#0xc]          ;91
00010a  7a80              LDRB     r0,[r0,#0xa]          ;91
00010c  2811              CMP      r0,#0x11              ;91
00010e  db23              BLT      |L4.344|
000110  9803              LDR      r0,[sp,#0xc]          ;91
000112  7a80              LDRB     r0,[r0,#0xa]          ;91
000114  2863              CMP      r0,#0x63              ;91
000116  dc1f              BGT      |L4.344|
000118  9803              LDR      r0,[sp,#0xc]          ;92
00011a  7ac0              LDRB     r0,[r0,#0xb]          ;92
00011c  2800              CMP      r0,#0                 ;92
00011e  dd1b              BLE      |L4.344|
000120  9803              LDR      r0,[sp,#0xc]          ;92
000122  7ac0              LDRB     r0,[r0,#0xb]          ;92
000124  280c              CMP      r0,#0xc               ;92
000126  dc17              BGT      |L4.344|
000128  9803              LDR      r0,[sp,#0xc]          ;93
00012a  7b00              LDRB     r0,[r0,#0xc]          ;93
00012c  2800              CMP      r0,#0                 ;93
00012e  dd13              BLE      |L4.344|
000130  9803              LDR      r0,[sp,#0xc]          ;93
000132  7b00              LDRB     r0,[r0,#0xc]          ;93
000134  281f              CMP      r0,#0x1f              ;93
000136  dc0f              BGT      |L4.344|
000138  9803              LDR      r0,[sp,#0xc]          ;94
00013a  7b40              LDRB     r0,[r0,#0xd]          ;94
00013c  2800              CMP      r0,#0                 ;94
00013e  dd0b              BLE      |L4.344|
000140  9803              LDR      r0,[sp,#0xc]          ;94
000142  7b40              LDRB     r0,[r0,#0xd]          ;94
000144  2818              CMP      r0,#0x18              ;94
000146  dc07              BGT      |L4.344|
000148  9803              LDR      r0,[sp,#0xc]          ;95
00014a  7b80              LDRB     r0,[r0,#0xe]          ;95
00014c  2800              CMP      r0,#0                 ;95
00014e  dd03              BLE      |L4.344|
000150  9803              LDR      r0,[sp,#0xc]          ;95
000152  7b80              LDRB     r0,[r0,#0xe]          ;95
000154  283c              CMP      r0,#0x3c              ;95
000156  dd0a              BLE      |L4.366|
                  |L4.344|
000158  20aa              MOVS     r0,#0xaa              ;97
00015a  9002              STR      r0,[sp,#8]            ;97
00015c  9803              LDR      r0,[sp,#0xc]          ;98
00015e  7880              LDRB     r0,[r0,#2]            ;98
000160  2301              MOVS     r3,#1                 ;98
000162  aa02              ADD      r2,sp,#8              ;98
000164  4619              MOV      r1,r3                 ;98
000166  9001              STR      r0,[sp,#4]            ;98
000168  f7fffffe          BL       SendDataToServer
                  |L4.364|
00016c  e78f              B        |L4.142|
                  |L4.366|
00016e  2105              MOVS     r1,#5                 ;101
000170  9803              LDR      r0,[sp,#0xc]          ;101
000172  300a              ADDS     r0,r0,#0xa            ;101
000174  f7fffffe          BL       ds1302_settime
000178  2055              MOVS     r0,#0x55              ;102
00017a  9002              STR      r0,[sp,#8]            ;102
00017c  9803              LDR      r0,[sp,#0xc]          ;103
00017e  7880              LDRB     r0,[r0,#2]            ;103
000180  2301              MOVS     r3,#1                 ;103
000182  aa02              ADD      r2,sp,#8              ;103
000184  4619              MOV      r1,r3                 ;103
000186  9001              STR      r0,[sp,#4]            ;103
000188  f7fffffe          BL       SendDataToServer
                  |L4.396|
00018c  e2d1              B        |L4.1842|
00018e  9803              LDR      r0,[sp,#0xc]          ;108
000190  79c0              LDRB     r0,[r0,#7]            ;108
000192  b948              CBNZ     r0,|L4.424|
000194  9803              LDR      r0,[sp,#0xc]          ;110
000196  7880              LDRB     r0,[r0,#2]            ;110
000198  2304              MOVS     r3,#4                 ;110
00019a  4a9c              LDR      r2,|L4.1036|
00019c  321c              ADDS     r2,r2,#0x1c           ;110
00019e  2100              MOVS     r1,#0                 ;110
0001a0  9001              STR      r0,[sp,#4]            ;110
0001a2  f7fffffe          BL       SendDataToServer
0001a6  e01d              B        |L4.484|
                  |L4.424|
0001a8  9803              LDR      r0,[sp,#0xc]          ;112
0001aa  79c0              LDRB     r0,[r0,#7]            ;112
0001ac  2801              CMP      r0,#1                 ;112
0001ae  d119              BNE      |L4.484|
0001b0  4896              LDR      r0,|L4.1036|
0001b2  9903              LDR      r1,[sp,#0xc]          ;114
0001b4  f8d1100a          LDR      r1,[r1,#0xa]          ;114
0001b8  61c1              STR      r1,[r0,#0x1c]         ;114
0001ba  6840              LDR      r0,[r0,#4]            ;115  ; g_tParam
0001bc  2102              MOVS     r1,#2                 ;115
0001be  9001              STR      r0,[sp,#4]            ;115
0001c0  4892              LDR      r0,|L4.1036|
0001c2  3018              ADDS     r0,r0,#0x18           ;115
0001c4  9a01              LDR      r2,[sp,#4]            ;115
0001c6  4790              BLX      r2                    ;115
0001c8  4890              LDR      r0,|L4.1036|
0001ca  3018              ADDS     r0,r0,#0x18           ;117
0001cc  f7fffffe          BL       set_default
0001d0  2055              MOVS     r0,#0x55              ;118
0001d2  9002              STR      r0,[sp,#8]            ;118
0001d4  9803              LDR      r0,[sp,#0xc]          ;119
0001d6  7880              LDRB     r0,[r0,#2]            ;119
0001d8  2301              MOVS     r3,#1                 ;119
0001da  aa02              ADD      r2,sp,#8              ;119
0001dc  4619              MOV      r1,r3                 ;119
0001de  9001              STR      r0,[sp,#4]            ;119
0001e0  f7fffffe          BL       SendDataToServer
                  |L4.484|
0001e4  e7d2              B        |L4.396|
0001e6  9803              LDR      r0,[sp,#0xc]          ;124
0001e8  79c0              LDRB     r0,[r0,#7]            ;124
0001ea  b990              CBNZ     r0,|L4.530|
0001ec  4887              LDR      r0,|L4.1036|
0001ee  8b00              LDRH     r0,[r0,#0x18]         ;126  ; g_tParam
0001f0  1201              ASRS     r1,r0,#8              ;126
0001f2  9803              LDR      r0,[sp,#0xc]          ;126
0001f4  7281              STRB     r1,[r0,#0xa]          ;126
0001f6  4885              LDR      r0,|L4.1036|
0001f8  7e01              LDRB     r1,[r0,#0x18]         ;127  ; g_tParam
0001fa  9803              LDR      r0,[sp,#0xc]          ;127
0001fc  72c1              STRB     r1,[r0,#0xb]          ;127
0001fe  9803              LDR      r0,[sp,#0xc]          ;128
000200  7880              LDRB     r0,[r0,#2]            ;128
000202  2302              MOVS     r3,#2                 ;128
000204  9001              STR      r0,[sp,#4]            ;128
000206  9a03              LDR      r2,[sp,#0xc]          ;128
000208  320a              ADDS     r2,r2,#0xa            ;128
00020a  2100              MOVS     r1,#0                 ;128
00020c  f7fffffe          BL       SendDataToServer
000210  e01c              B        |L4.588|
                  |L4.530|
000212  9803              LDR      r0,[sp,#0xc]          ;130
000214  79c0              LDRB     r0,[r0,#7]            ;130
000216  2801              CMP      r0,#1                 ;130
000218  d118              BNE      |L4.588|
00021a  9803              LDR      r0,[sp,#0xc]          ;132
00021c  7ac1              LDRB     r1,[r0,#0xb]          ;132
00021e  7a80              LDRB     r0,[r0,#0xa]          ;132
000220  eb012000          ADD      r0,r1,r0,LSL #8       ;132
000224  4979              LDR      r1,|L4.1036|
000226  8308              STRH     r0,[r1,#0x18]         ;132
000228  4608              MOV      r0,r1                 ;133
00022a  6840              LDR      r0,[r0,#4]            ;133  ; g_tParam
00022c  2100              MOVS     r1,#0                 ;133
00022e  9001              STR      r0,[sp,#4]            ;133
000230  4876              LDR      r0,|L4.1036|
000232  3018              ADDS     r0,r0,#0x18           ;133
000234  9a01              LDR      r2,[sp,#4]            ;133
000236  4790              BLX      r2                    ;133
000238  2055              MOVS     r0,#0x55              ;134
00023a  9002              STR      r0,[sp,#8]            ;134
00023c  9803              LDR      r0,[sp,#0xc]          ;135
00023e  7880              LDRB     r0,[r0,#2]            ;135
000240  2301              MOVS     r3,#1                 ;135
000242  aa02              ADD      r2,sp,#8              ;135
000244  4619              MOV      r1,r3                 ;135
000246  9001              STR      r0,[sp,#4]            ;135
000248  f7fffffe          BL       SendDataToServer
                  |L4.588|
00024c  e79e              B        |L4.396|
00024e  9803              LDR      r0,[sp,#0xc]          ;140
000250  79c0              LDRB     r0,[r0,#7]            ;140
000252  b948              CBNZ     r0,|L4.616|
000254  9803              LDR      r0,[sp,#0xc]          ;142
000256  7880              LDRB     r0,[r0,#2]            ;142
000258  2304              MOVS     r3,#4                 ;142
00025a  4a6c              LDR      r2,|L4.1036|
00025c  3220              ADDS     r2,r2,#0x20           ;142
00025e  2100              MOVS     r1,#0                 ;142
000260  9001              STR      r0,[sp,#4]            ;142
000262  f7fffffe          BL       SendDataToServer
000266  e019              B        |L4.668|
                  |L4.616|
000268  9803              LDR      r0,[sp,#0xc]          ;144
00026a  79c0              LDRB     r0,[r0,#7]            ;144
00026c  2801              CMP      r0,#1                 ;144
00026e  d115              BNE      |L4.668|
000270  4866              LDR      r0,|L4.1036|
000272  9903              LDR      r1,[sp,#0xc]          ;146
000274  f8d1100a          LDR      r1,[r1,#0xa]          ;146
000278  6201              STR      r1,[r0,#0x20]         ;146
00027a  6840              LDR      r0,[r0,#4]            ;147  ; g_tParam
00027c  2103              MOVS     r1,#3                 ;147
00027e  9001              STR      r0,[sp,#4]            ;147
000280  4862              LDR      r0,|L4.1036|
000282  3018              ADDS     r0,r0,#0x18           ;147
000284  9a01              LDR      r2,[sp,#4]            ;147
000286  4790              BLX      r2                    ;147
000288  2055              MOVS     r0,#0x55              ;148
00028a  9002              STR      r0,[sp,#8]            ;148
00028c  9803              LDR      r0,[sp,#0xc]          ;149
00028e  7880              LDRB     r0,[r0,#2]            ;149
000290  2301              MOVS     r3,#1                 ;149
000292  aa02              ADD      r2,sp,#8              ;149
000294  4619              MOV      r1,r3                 ;149
000296  9001              STR      r0,[sp,#4]            ;149
000298  f7fffffe          BL       SendDataToServer
                  |L4.668|
00029c  e776              B        |L4.396|
00029e  9803              LDR      r0,[sp,#0xc]          ;154
0002a0  79c0              LDRB     r0,[r0,#7]            ;154
0002a2  b990              CBNZ     r0,|L4.714|
0002a4  4859              LDR      r0,|L4.1036|
0002a6  8b40              LDRH     r0,[r0,#0x1a]         ;156
0002a8  1201              ASRS     r1,r0,#8              ;156
0002aa  9803              LDR      r0,[sp,#0xc]          ;156
0002ac  7281              STRB     r1,[r0,#0xa]          ;156
0002ae  4857              LDR      r0,|L4.1036|
0002b0  7e81              LDRB     r1,[r0,#0x1a]         ;157
0002b2  9803              LDR      r0,[sp,#0xc]          ;157
0002b4  72c1              STRB     r1,[r0,#0xb]          ;157
0002b6  9803              LDR      r0,[sp,#0xc]          ;158
0002b8  7880              LDRB     r0,[r0,#2]            ;158
0002ba  2302              MOVS     r3,#2                 ;158
0002bc  9001              STR      r0,[sp,#4]            ;158
0002be  9a03              LDR      r2,[sp,#0xc]          ;158
0002c0  320a              ADDS     r2,r2,#0xa            ;158
0002c2  2100              MOVS     r1,#0                 ;158
0002c4  f7fffffe          BL       SendDataToServer
0002c8  e01c              B        |L4.772|
                  |L4.714|
0002ca  9803              LDR      r0,[sp,#0xc]          ;160
0002cc  79c0              LDRB     r0,[r0,#7]            ;160
0002ce  2801              CMP      r0,#1                 ;160
0002d0  d118              BNE      |L4.772|
0002d2  9803              LDR      r0,[sp,#0xc]          ;162
0002d4  7ac1              LDRB     r1,[r0,#0xb]          ;162
0002d6  7a80              LDRB     r0,[r0,#0xa]          ;162
0002d8  eb012000          ADD      r0,r1,r0,LSL #8       ;162
0002dc  b281              UXTH     r1,r0                 ;162
0002de  484b              LDR      r0,|L4.1036|
0002e0  8341              STRH     r1,[r0,#0x1a]         ;162
0002e2  6840              LDR      r0,[r0,#4]            ;163  ; g_tParam
0002e4  2101              MOVS     r1,#1                 ;163
0002e6  9001              STR      r0,[sp,#4]            ;163
0002e8  4848              LDR      r0,|L4.1036|
0002ea  3018              ADDS     r0,r0,#0x18           ;163
0002ec  9a01              LDR      r2,[sp,#4]            ;163
0002ee  4790              BLX      r2                    ;163
0002f0  2055              MOVS     r0,#0x55              ;164
0002f2  9002              STR      r0,[sp,#8]            ;164
0002f4  9803              LDR      r0,[sp,#0xc]          ;165
0002f6  7880              LDRB     r0,[r0,#2]            ;165
0002f8  2301              MOVS     r3,#1                 ;165
0002fa  aa02              ADD      r2,sp,#8              ;165
0002fc  4619              MOV      r1,r3                 ;165
0002fe  9001              STR      r0,[sp,#4]            ;165
000300  f7fffffe          BL       SendDataToServer
                  |L4.772|
000304  e742              B        |L4.396|
000306  9803              LDR      r0,[sp,#0xc]          ;170
000308  79c0              LDRB     r0,[r0,#7]            ;170
00030a  b948              CBNZ     r0,|L4.800|
00030c  9803              LDR      r0,[sp,#0xc]          ;172
00030e  7880              LDRB     r0,[r0,#2]            ;172
000310  2301              MOVS     r3,#1                 ;172
000312  4a3e              LDR      r2,|L4.1036|
000314  3228              ADDS     r2,r2,#0x28           ;172
000316  2100              MOVS     r1,#0                 ;172
000318  9001              STR      r0,[sp,#4]            ;172
00031a  f7fffffe          BL       SendDataToServer
00031e  e028              B        |L4.882|
                  |L4.800|
000320  9803              LDR      r0,[sp,#0xc]          ;174
000322  79c0              LDRB     r0,[r0,#7]            ;174
000324  2801              CMP      r0,#1                 ;174
000326  d124              BNE      |L4.882|
000328  9803              LDR      r0,[sp,#0xc]          ;176
00032a  7a80              LDRB     r0,[r0,#0xa]          ;176
00032c  b950              CBNZ     r0,|L4.836|
00032e  20aa              MOVS     r0,#0xaa              ;178
000330  9002              STR      r0,[sp,#8]            ;178
000332  9803              LDR      r0,[sp,#0xc]          ;179
000334  7880              LDRB     r0,[r0,#2]            ;179
000336  2301              MOVS     r3,#1                 ;179
000338  aa02              ADD      r2,sp,#8              ;179
00033a  4619              MOV      r1,r3                 ;179
00033c  9001              STR      r0,[sp,#4]            ;179
00033e  f7fffffe          BL       SendDataToServer
000342  e6a4              B        |L4.142|
                  |L4.836|
000344  4931              LDR      r1,|L4.1036|
000346  9803              LDR      r0,[sp,#0xc]          ;182
000348  7a80              LDRB     r0,[r0,#0xa]          ;182
00034a  f8810028          STRB     r0,[r1,#0x28]         ;182
00034e  4608              MOV      r0,r1                 ;183
000350  6880              LDR      r0,[r0,#8]            ;183  ; g_tParam
000352  2100              MOVS     r1,#0                 ;183
000354  9001              STR      r0,[sp,#4]            ;183
000356  482d              LDR      r0,|L4.1036|
000358  3028              ADDS     r0,r0,#0x28           ;183
00035a  9a01              LDR      r2,[sp,#4]            ;183
00035c  4790              BLX      r2                    ;183
00035e  2055              MOVS     r0,#0x55              ;184
000360  9002              STR      r0,[sp,#8]            ;184
000362  9803              LDR      r0,[sp,#0xc]          ;185
000364  7880              LDRB     r0,[r0,#2]            ;185
000366  2301              MOVS     r3,#1                 ;185
000368  aa02              ADD      r2,sp,#8              ;185
00036a  4619              MOV      r1,r3                 ;185
00036c  9001              STR      r0,[sp,#4]            ;185
00036e  f7fffffe          BL       SendDataToServer
                  |L4.882|
000372  e70b              B        |L4.396|
000374  9803              LDR      r0,[sp,#0xc]          ;190
000376  79c0              LDRB     r0,[r0,#7]            ;190
000378  b948              CBNZ     r0,|L4.910|
00037a  9803              LDR      r0,[sp,#0xc]          ;192
00037c  7880              LDRB     r0,[r0,#2]            ;192
00037e  2301              MOVS     r3,#1                 ;192
000380  4a22              LDR      r2,|L4.1036|
000382  3229              ADDS     r2,r2,#0x29           ;192
000384  2100              MOVS     r1,#0                 ;192
000386  9001              STR      r0,[sp,#4]            ;192
000388  f7fffffe          BL       SendDataToServer
00038c  e019              B        |L4.962|
                  |L4.910|
00038e  9803              LDR      r0,[sp,#0xc]          ;194
000390  79c0              LDRB     r0,[r0,#7]            ;194
000392  2801              CMP      r0,#1                 ;194
000394  d115              BNE      |L4.962|
000396  481d              LDR      r0,|L4.1036|
000398  9903              LDR      r1,[sp,#0xc]          ;198
00039a  7a89              LDRB     r1,[r1,#0xa]          ;198
00039c  f8801029          STRB     r1,[r0,#0x29]         ;198
0003a0  6880              LDR      r0,[r0,#8]            ;199  ; g_tParam
0003a2  2101              MOVS     r1,#1                 ;199
0003a4  9001              STR      r0,[sp,#4]            ;199
0003a6  4819              LDR      r0,|L4.1036|
0003a8  3028              ADDS     r0,r0,#0x28           ;199
0003aa  9a01              LDR      r2,[sp,#4]            ;199
0003ac  4790              BLX      r2                    ;199
0003ae  2055              MOVS     r0,#0x55              ;200
0003b0  9002              STR      r0,[sp,#8]            ;200
0003b2  9803              LDR      r0,[sp,#0xc]          ;201
0003b4  7880              LDRB     r0,[r0,#2]            ;201
0003b6  2301              MOVS     r3,#1                 ;201
0003b8  aa02              ADD      r2,sp,#8              ;201
0003ba  4619              MOV      r1,r3                 ;201
0003bc  9001              STR      r0,[sp,#4]            ;201
0003be  f7fffffe          BL       SendDataToServer
                  |L4.962|
0003c2  e6e3              B        |L4.396|
0003c4  9803              LDR      r0,[sp,#0xc]          ;206
0003c6  79c0              LDRB     r0,[r0,#7]            ;206
0003c8  b948              CBNZ     r0,|L4.990|
0003ca  9803              LDR      r0,[sp,#0xc]          ;208
0003cc  7880              LDRB     r0,[r0,#2]            ;208
0003ce  2301              MOVS     r3,#1                 ;208
0003d0  4a0e              LDR      r2,|L4.1036|
0003d2  3214              ADDS     r2,r2,#0x14           ;208
0003d4  2100              MOVS     r1,#0                 ;208
0003d6  9001              STR      r0,[sp,#4]            ;208
0003d8  f7fffffe          BL       SendDataToServer
0003dc  e020              B        |L4.1056|
                  |L4.990|
0003de  9803              LDR      r0,[sp,#0xc]          ;210
0003e0  79c0              LDRB     r0,[r0,#7]            ;210
0003e2  2801              CMP      r0,#1                 ;210
0003e4  d11c              BNE      |L4.1056|
0003e6  4909              LDR      r1,|L4.1036|
0003e8  9803              LDR      r0,[sp,#0xc]          ;212
0003ea  7a80              LDRB     r0,[r0,#0xa]          ;212
0003ec  7508              STRB     r0,[r1,#0x14]         ;212
0003ee  4608              MOV      r0,r1                 ;213
0003f0  6800              LDR      r0,[r0,#0]            ;213  ; g_tParam
0003f2  2100              MOVS     r1,#0                 ;213
0003f4  9001              STR      r0,[sp,#4]            ;213
0003f6  4805              LDR      r0,|L4.1036|
0003f8  3014              ADDS     r0,r0,#0x14           ;213
0003fa  9a01              LDR      r2,[sp,#4]            ;213
0003fc  4790              BLX      r2                    ;213
0003fe  2055              MOVS     r0,#0x55              ;214
000400  9002              STR      r0,[sp,#8]            ;214
000402  9803              LDR      r0,[sp,#0xc]          ;215
000404  7880              LDRB     r0,[r0,#2]            ;215
000406  e005              B        |L4.1044|
                  |L4.1032|
                          DCD      g_tDoorStatus
                  |L4.1036|
                          DCD      g_tParam
                  |L4.1040|
                          DCD      g_tRunInfo+0x6
                  |L4.1044|
000414  2301              MOVS     r3,#1                 ;215
000416  aa02              ADD      r2,sp,#8              ;215
000418  4619              MOV      r1,r3                 ;215
00041a  9001              STR      r0,[sp,#4]            ;215
00041c  f7fffffe          BL       SendDataToServer
                  |L4.1056|
000420  e6b4              B        |L4.396|
000422  9803              LDR      r0,[sp,#0xc]          ;220
000424  79c0              LDRB     r0,[r0,#7]            ;220
000426  b940              CBNZ     r0,|L4.1082|
000428  9803              LDR      r0,[sp,#0xc]          ;222
00042a  7880              LDRB     r0,[r0,#2]            ;222
00042c  2301              MOVS     r3,#1                 ;222
00042e  4af9              LDR      r2,|L4.2068|
000430  2100              MOVS     r1,#0                 ;222
000432  9001              STR      r0,[sp,#4]            ;222
000434  f7fffffe          BL       SendDataToServer
000438  e019              B        |L4.1134|
                  |L4.1082|
00043a  9803              LDR      r0,[sp,#0xc]          ;224
00043c  79c0              LDRB     r0,[r0,#7]            ;224
00043e  2801              CMP      r0,#1                 ;224
000440  d115              BNE      |L4.1134|
000442  48f4              LDR      r0,|L4.2068|
000444  3816              SUBS     r0,r0,#0x16           ;226
000446  9903              LDR      r1,[sp,#0xc]          ;226
000448  7a89              LDRB     r1,[r1,#0xa]          ;226
00044a  7581              STRB     r1,[r0,#0x16]         ;226
00044c  6800              LDR      r0,[r0,#0]            ;227  ; g_tParam
00044e  2101              MOVS     r1,#1                 ;227
000450  9001              STR      r0,[sp,#4]            ;227
000452  48f0              LDR      r0,|L4.2068|
000454  1e80              SUBS     r0,r0,#2              ;227
000456  9a01              LDR      r2,[sp,#4]            ;227
000458  4790              BLX      r2                    ;227
00045a  2055              MOVS     r0,#0x55              ;228
00045c  9002              STR      r0,[sp,#8]            ;228
00045e  9803              LDR      r0,[sp,#0xc]          ;229
000460  7880              LDRB     r0,[r0,#2]            ;229
000462  2301              MOVS     r3,#1                 ;229
000464  aa02              ADD      r2,sp,#8              ;229
000466  4619              MOV      r1,r3                 ;229
000468  9001              STR      r0,[sp,#4]            ;229
00046a  f7fffffe          BL       SendDataToServer
                  |L4.1134|
00046e  e68d              B        |L4.396|
000470  9803              LDR      r0,[sp,#0xc]          ;234
000472  79c0              LDRB     r0,[r0,#7]            ;234
000474  b948              CBNZ     r0,|L4.1162|
000476  9803              LDR      r0,[sp,#0xc]          ;236
000478  7880              LDRB     r0,[r0,#2]            ;236
00047a  2301              MOVS     r3,#1                 ;236
00047c  4ae5              LDR      r2,|L4.2068|
00047e  1e52              SUBS     r2,r2,#1              ;236
000480  2100              MOVS     r1,#0                 ;236
000482  9001              STR      r0,[sp,#4]            ;236
000484  f7fffffe          BL       SendDataToServer
000488  e019              B        |L4.1214|
                  |L4.1162|
00048a  9803              LDR      r0,[sp,#0xc]          ;238
00048c  79c0              LDRB     r0,[r0,#7]            ;238
00048e  2801              CMP      r0,#1                 ;238
000490  d115              BNE      |L4.1214|
000492  48e0              LDR      r0,|L4.2068|
000494  3816              SUBS     r0,r0,#0x16           ;240
000496  9903              LDR      r1,[sp,#0xc]          ;240
000498  7a89              LDRB     r1,[r1,#0xa]          ;240
00049a  7541              STRB     r1,[r0,#0x15]         ;240
00049c  6800              LDR      r0,[r0,#0]            ;241  ; g_tParam
00049e  2102              MOVS     r1,#2                 ;241
0004a0  9001              STR      r0,[sp,#4]            ;241
0004a2  48dc              LDR      r0,|L4.2068|
0004a4  1e80              SUBS     r0,r0,#2              ;241
0004a6  9a01              LDR      r2,[sp,#4]            ;241
0004a8  4790              BLX      r2                    ;241
0004aa  2055              MOVS     r0,#0x55              ;242
0004ac  9002              STR      r0,[sp,#8]            ;242
0004ae  9803              LDR      r0,[sp,#0xc]          ;243
0004b0  7880              LDRB     r0,[r0,#2]            ;243
0004b2  2301              MOVS     r3,#1                 ;243
0004b4  aa02              ADD      r2,sp,#8              ;243
0004b6  4619              MOV      r1,r3                 ;243
0004b8  9001              STR      r0,[sp,#4]            ;243
0004ba  f7fffffe          BL       SendDataToServer
                  |L4.1214|
0004be  e665              B        |L4.396|
0004c0  9803              LDR      r0,[sp,#0xc]          ;248
0004c2  79c0              LDRB     r0,[r0,#7]            ;248
0004c4  b948              CBNZ     r0,|L4.1242|
0004c6  9803              LDR      r0,[sp,#0xc]          ;250
0004c8  7880              LDRB     r0,[r0,#2]            ;250
0004ca  2301              MOVS     r3,#1                 ;250
0004cc  4ad1              LDR      r2,|L4.2068|
0004ce  1c52              ADDS     r2,r2,#1              ;250
0004d0  2100              MOVS     r1,#0                 ;250
0004d2  9001              STR      r0,[sp,#4]            ;250
0004d4  f7fffffe          BL       SendDataToServer
0004d8  e019              B        |L4.1294|
                  |L4.1242|
0004da  9803              LDR      r0,[sp,#0xc]          ;252
0004dc  79c0              LDRB     r0,[r0,#7]            ;252
0004de  2801              CMP      r0,#1                 ;252
0004e0  d115              BNE      |L4.1294|
0004e2  48cc              LDR      r0,|L4.2068|
0004e4  3816              SUBS     r0,r0,#0x16           ;254
0004e6  9903              LDR      r1,[sp,#0xc]          ;254
0004e8  7a89              LDRB     r1,[r1,#0xa]          ;254
0004ea  75c1              STRB     r1,[r0,#0x17]         ;254
0004ec  6800              LDR      r0,[r0,#0]            ;255  ; g_tParam
0004ee  2103              MOVS     r1,#3                 ;255
0004f0  9001              STR      r0,[sp,#4]            ;255
0004f2  48c8              LDR      r0,|L4.2068|
0004f4  1e80              SUBS     r0,r0,#2              ;255
0004f6  9a01              LDR      r2,[sp,#4]            ;255
0004f8  4790              BLX      r2                    ;255
0004fa  2055              MOVS     r0,#0x55              ;256
0004fc  9002              STR      r0,[sp,#8]            ;256
0004fe  9803              LDR      r0,[sp,#0xc]          ;257
000500  7880              LDRB     r0,[r0,#2]            ;257
000502  2301              MOVS     r3,#1                 ;257
000504  aa02              ADD      r2,sp,#8              ;257
000506  4619              MOV      r1,r3                 ;257
000508  9001              STR      r0,[sp,#4]            ;257
00050a  f7fffffe          BL       SendDataToServer
                  |L4.1294|
00050e  e63d              B        |L4.396|
000510  9803              LDR      r0,[sp,#0xc]          ;262
000512  79c0              LDRB     r0,[r0,#7]            ;262
000514  b948              CBNZ     r0,|L4.1322|
000516  9803              LDR      r0,[sp,#0xc]          ;264
000518  7880              LDRB     r0,[r0,#2]            ;264
00051a  2301              MOVS     r3,#1                 ;264
00051c  4abd              LDR      r2,|L4.2068|
00051e  3214              ADDS     r2,r2,#0x14           ;264
000520  2100              MOVS     r1,#0                 ;264
000522  9001              STR      r0,[sp,#4]            ;264
000524  f7fffffe          BL       SendDataToServer
000528  e035              B        |L4.1430|
                  |L4.1322|
00052a  9803              LDR      r0,[sp,#0xc]          ;266
00052c  79c0              LDRB     r0,[r0,#7]            ;266
00052e  2801              CMP      r0,#1                 ;266
000530  d131              BNE      |L4.1430|
000532  9803              LDR      r0,[sp,#0xc]          ;269
000534  7a80              LDRB     r0,[r0,#0xa]          ;269
000536  2801              CMP      r0,#1                 ;269
000538  dc0b              BGT      |L4.1362|
00053a  48b6              LDR      r0,|L4.2068|
00053c  3816              SUBS     r0,r0,#0x16           ;270
00053e  f890002b          LDRB     r0,[r0,#0x2b]         ;270
000542  2801              CMP      r0,#1                 ;270
000544  d005              BEQ      |L4.1362|
000546  48b3              LDR      r0,|L4.2068|
000548  3816              SUBS     r0,r0,#0x16           ;271
00054a  f890002c          LDRB     r0,[r0,#0x2c]         ;271
00054e  2801              CMP      r0,#1                 ;271
000550  d10a              BNE      |L4.1384|
                  |L4.1362|
000552  20aa              MOVS     r0,#0xaa              ;273
000554  9002              STR      r0,[sp,#8]            ;273
000556  9803              LDR      r0,[sp,#0xc]          ;274
000558  7880              LDRB     r0,[r0,#2]            ;274
00055a  2301              MOVS     r3,#1                 ;274
00055c  aa02              ADD      r2,sp,#8              ;274
00055e  4619              MOV      r1,r3                 ;274
000560  9001              STR      r0,[sp,#4]            ;274
000562  f7fffffe          BL       SendDataToServer
000566  e592              B        |L4.142|
                  |L4.1384|
000568  48aa              LDR      r0,|L4.2068|
00056a  3816              SUBS     r0,r0,#0x16           ;277
00056c  9903              LDR      r1,[sp,#0xc]          ;277
00056e  7a89              LDRB     r1,[r1,#0xa]          ;277
000570  f880102a          STRB     r1,[r0,#0x2a]         ;277
000574  6880              LDR      r0,[r0,#8]            ;278  ; g_tParam
000576  2102              MOVS     r1,#2                 ;278
000578  9001              STR      r0,[sp,#4]            ;278
00057a  48a6              LDR      r0,|L4.2068|
00057c  3012              ADDS     r0,r0,#0x12           ;278
00057e  9a01              LDR      r2,[sp,#4]            ;278
000580  4790              BLX      r2                    ;278
000582  2055              MOVS     r0,#0x55              ;279
000584  9002              STR      r0,[sp,#8]            ;279
000586  9803              LDR      r0,[sp,#0xc]          ;280
000588  7880              LDRB     r0,[r0,#2]            ;280
00058a  2301              MOVS     r3,#1                 ;280
00058c  aa02              ADD      r2,sp,#8              ;280
00058e  4619              MOV      r1,r3                 ;280
000590  9001              STR      r0,[sp,#4]            ;280
000592  f7fffffe          BL       SendDataToServer
                  |L4.1430|
000596  e5f9              B        |L4.396|
000598  9803              LDR      r0,[sp,#0xc]          ;285
00059a  79c0              LDRB     r0,[r0,#7]            ;285
00059c  b948              CBNZ     r0,|L4.1458|
00059e  9803              LDR      r0,[sp,#0xc]          ;287
0005a0  7880              LDRB     r0,[r0,#2]            ;287
0005a2  2301              MOVS     r3,#1                 ;287
0005a4  4a9b              LDR      r2,|L4.2068|
0005a6  3215              ADDS     r2,r2,#0x15           ;287
0005a8  2100              MOVS     r1,#0                 ;287
0005aa  9001              STR      r0,[sp,#4]            ;287
0005ac  f7fffffe          BL       SendDataToServer
0005b0  e035              B        |L4.1566|
                  |L4.1458|
0005b2  9803              LDR      r0,[sp,#0xc]          ;289
0005b4  79c0              LDRB     r0,[r0,#7]            ;289
0005b6  2801              CMP      r0,#1                 ;289
0005b8  d131              BNE      |L4.1566|
0005ba  9803              LDR      r0,[sp,#0xc]          ;292
0005bc  7a80              LDRB     r0,[r0,#0xa]          ;292
0005be  2801              CMP      r0,#1                 ;292
0005c0  dc0b              BGT      |L4.1498|
0005c2  4894              LDR      r0,|L4.2068|
0005c4  3816              SUBS     r0,r0,#0x16           ;293
0005c6  f890002a          LDRB     r0,[r0,#0x2a]         ;293
0005ca  2801              CMP      r0,#1                 ;293
0005cc  d005              BEQ      |L4.1498|
0005ce  4891              LDR      r0,|L4.2068|
0005d0  3816              SUBS     r0,r0,#0x16           ;294
0005d2  f890002c          LDRB     r0,[r0,#0x2c]         ;294
0005d6  2801              CMP      r0,#1                 ;294
0005d8  d10a              BNE      |L4.1520|
                  |L4.1498|
0005da  20aa              MOVS     r0,#0xaa              ;296
0005dc  9002              STR      r0,[sp,#8]            ;296
0005de  9803              LDR      r0,[sp,#0xc]          ;297
0005e0  7880              LDRB     r0,[r0,#2]            ;297
0005e2  2301              MOVS     r3,#1                 ;297
0005e4  aa02              ADD      r2,sp,#8              ;297
0005e6  4619              MOV      r1,r3                 ;297
0005e8  9001              STR      r0,[sp,#4]            ;297
0005ea  f7fffffe          BL       SendDataToServer
0005ee  e54e              B        |L4.142|
                  |L4.1520|
0005f0  4888              LDR      r0,|L4.2068|
0005f2  3816              SUBS     r0,r0,#0x16           ;300
0005f4  9903              LDR      r1,[sp,#0xc]          ;300
0005f6  7a89              LDRB     r1,[r1,#0xa]          ;300
0005f8  f880102b          STRB     r1,[r0,#0x2b]         ;300
0005fc  6880              LDR      r0,[r0,#8]            ;301  ; g_tParam
0005fe  2103              MOVS     r1,#3                 ;301
000600  9001              STR      r0,[sp,#4]            ;301
000602  4884              LDR      r0,|L4.2068|
000604  3012              ADDS     r0,r0,#0x12           ;301
000606  9a01              LDR      r2,[sp,#4]            ;301
000608  4790              BLX      r2                    ;301
00060a  2055              MOVS     r0,#0x55              ;302
00060c  9002              STR      r0,[sp,#8]            ;302
00060e  9803              LDR      r0,[sp,#0xc]          ;303
000610  7880              LDRB     r0,[r0,#2]            ;303
000612  2301              MOVS     r3,#1                 ;303
000614  aa02              ADD      r2,sp,#8              ;303
000616  4619              MOV      r1,r3                 ;303
000618  9001              STR      r0,[sp,#4]            ;303
00061a  f7fffffe          BL       SendDataToServer
                  |L4.1566|
00061e  e5b5              B        |L4.396|
000620  9803              LDR      r0,[sp,#0xc]          ;308
000622  79c0              LDRB     r0,[r0,#7]            ;308
000624  b948              CBNZ     r0,|L4.1594|
000626  9803              LDR      r0,[sp,#0xc]          ;310
000628  7880              LDRB     r0,[r0,#2]            ;310
00062a  2301              MOVS     r3,#1                 ;310
00062c  4a79              LDR      r2,|L4.2068|
00062e  3216              ADDS     r2,r2,#0x16           ;310
000630  2100              MOVS     r1,#0                 ;310
000632  9001              STR      r0,[sp,#4]            ;310
000634  f7fffffe          BL       SendDataToServer
000638  e043              B        |L4.1730|
                  |L4.1594|
00063a  9803              LDR      r0,[sp,#0xc]          ;312
00063c  79c0              LDRB     r0,[r0,#7]            ;312
00063e  2801              CMP      r0,#1                 ;312
000640  d13f              BNE      |L4.1730|
000642  9803              LDR      r0,[sp,#0xc]          ;315
000644  7a80              LDRB     r0,[r0,#0xa]          ;315
000646  2102              MOVS     r1,#2                 ;315
000648  ebb11f20          CMP      r1,r0,ASR #4          ;315
00064c  dc17              BGT      |L4.1662|
00064e  9803              LDR      r0,[sp,#0xc]          ;315
000650  7a80              LDRB     r0,[r0,#0xa]          ;315
000652  210a              MOVS     r1,#0xa               ;315
000654  ebb11f20          CMP      r1,r0,ASR #4          ;315
000658  db11              BLT      |L4.1662|
00065a  9803              LDR      r0,[sp,#0xc]          ;315
00065c  7a80              LDRB     r0,[r0,#0xa]          ;315
00065e  f000000f          AND      r0,r0,#0xf            ;315
000662  2801              CMP      r0,#1                 ;315
000664  dc0b              BGT      |L4.1662|
000666  486b              LDR      r0,|L4.2068|
000668  3816              SUBS     r0,r0,#0x16           ;316
00066a  f890002a          LDRB     r0,[r0,#0x2a]         ;316
00066e  2801              CMP      r0,#1                 ;316
000670  d005              BEQ      |L4.1662|
000672  4868              LDR      r0,|L4.2068|
000674  3816              SUBS     r0,r0,#0x16           ;317
000676  f890002b          LDRB     r0,[r0,#0x2b]         ;317
00067a  2801              CMP      r0,#1                 ;317
00067c  d10a              BNE      |L4.1684|
                  |L4.1662|
00067e  20aa              MOVS     r0,#0xaa              ;319
000680  9002              STR      r0,[sp,#8]            ;319
000682  9803              LDR      r0,[sp,#0xc]          ;320
000684  7880              LDRB     r0,[r0,#2]            ;320
000686  2301              MOVS     r3,#1                 ;320
000688  aa02              ADD      r2,sp,#8              ;320
00068a  4619              MOV      r1,r3                 ;320
00068c  9001              STR      r0,[sp,#4]            ;320
00068e  f7fffffe          BL       SendDataToServer
                  |L4.1682|
000692  e4fc              B        |L4.142|
                  |L4.1684|
000694  485f              LDR      r0,|L4.2068|
000696  3816              SUBS     r0,r0,#0x16           ;323
000698  9903              LDR      r1,[sp,#0xc]          ;323
00069a  7a89              LDRB     r1,[r1,#0xa]          ;323
00069c  f880102c          STRB     r1,[r0,#0x2c]         ;323
0006a0  6880              LDR      r0,[r0,#8]            ;324  ; g_tParam
0006a2  2104              MOVS     r1,#4                 ;324
0006a4  9001              STR      r0,[sp,#4]            ;324
0006a6  485b              LDR      r0,|L4.2068|
0006a8  3012              ADDS     r0,r0,#0x12           ;324
0006aa  9a01              LDR      r2,[sp,#4]            ;324
0006ac  4790              BLX      r2                    ;324
0006ae  2055              MOVS     r0,#0x55              ;325
0006b0  9002              STR      r0,[sp,#8]            ;325
0006b2  9803              LDR      r0,[sp,#0xc]          ;326
0006b4  7880              LDRB     r0,[r0,#2]            ;326
0006b6  2301              MOVS     r3,#1                 ;326
0006b8  aa02              ADD      r2,sp,#8              ;326
0006ba  4619              MOV      r1,r3                 ;326
0006bc  9001              STR      r0,[sp,#4]            ;326
0006be  f7fffffe          BL       SendDataToServer
                  |L4.1730|
0006c2  e3b2              B        |L4.3626|
0006c4  9803              LDR      r0,[sp,#0xc]          ;331
0006c6  79c0              LDRB     r0,[r0,#7]            ;331
0006c8  b948              CBNZ     r0,|L4.1758|
0006ca  9803              LDR      r0,[sp,#0xc]          ;333
0006cc  7880              LDRB     r0,[r0,#2]            ;333
0006ce  2301              MOVS     r3,#1                 ;333
0006d0  4a50              LDR      r2,|L4.2068|
0006d2  3217              ADDS     r2,r2,#0x17           ;333
0006d4  2100              MOVS     r1,#0                 ;333
0006d6  9001              STR      r0,[sp,#4]            ;333
0006d8  f7fffffe          BL       SendDataToServer
0006dc  e029              B        |L4.1842|
                  |L4.1758|
0006de  9803              LDR      r0,[sp,#0xc]          ;335
0006e0  79c0              LDRB     r0,[r0,#7]            ;335
0006e2  2801              CMP      r0,#1                 ;335
0006e4  d125              BNE      |L4.1842|
0006e6  9803              LDR      r0,[sp,#0xc]          ;337
0006e8  7a80              LDRB     r0,[r0,#0xa]          ;337
0006ea  2801              CMP      r0,#1                 ;337
0006ec  dd0a              BLE      |L4.1796|
0006ee  20aa              MOVS     r0,#0xaa              ;339
0006f0  9002              STR      r0,[sp,#8]            ;339
0006f2  9803              LDR      r0,[sp,#0xc]          ;340
0006f4  7880              LDRB     r0,[r0,#2]            ;340
0006f6  2301              MOVS     r3,#1                 ;340
0006f8  aa02              ADD      r2,sp,#8              ;340
0006fa  4619              MOV      r1,r3                 ;340
0006fc  9001              STR      r0,[sp,#4]            ;340
0006fe  f7fffffe          BL       SendDataToServer
000702  e4c4              B        |L4.142|
                  |L4.1796|
000704  4843              LDR      r0,|L4.2068|
000706  3816              SUBS     r0,r0,#0x16           ;343
000708  9903              LDR      r1,[sp,#0xc]          ;343
00070a  7a89              LDRB     r1,[r1,#0xa]          ;343
00070c  f880102d          STRB     r1,[r0,#0x2d]         ;343
000710  6880              LDR      r0,[r0,#8]            ;344  ; g_tParam
000712  2105              MOVS     r1,#5                 ;344
000714  9001              STR      r0,[sp,#4]            ;344
000716  483f              LDR      r0,|L4.2068|
000718  3012              ADDS     r0,r0,#0x12           ;344
00071a  9a01              LDR      r2,[sp,#4]            ;344
00071c  4790              BLX      r2                    ;344
00071e  2055              MOVS     r0,#0x55              ;345
000720  9002              STR      r0,[sp,#8]            ;345
000722  9803              LDR      r0,[sp,#0xc]          ;346
000724  7880              LDRB     r0,[r0,#2]            ;346
000726  2301              MOVS     r3,#1                 ;346
000728  aa02              ADD      r2,sp,#8              ;346
00072a  4619              MOV      r1,r3                 ;346
00072c  9001              STR      r0,[sp,#4]            ;346
00072e  f7fffffe          BL       SendDataToServer
                  |L4.1842|
000732  e37a              B        |L4.3626|
000734  9803              LDR      r0,[sp,#0xc]          ;351
000736  79c0              LDRB     r0,[r0,#7]            ;351
000738  b948              CBNZ     r0,|L4.1870|
00073a  9803              LDR      r0,[sp,#0xc]          ;353
00073c  7880              LDRB     r0,[r0,#2]            ;353
00073e  2301              MOVS     r3,#1                 ;353
000740  4a34              LDR      r2,|L4.2068|
000742  3218              ADDS     r2,r2,#0x18           ;353
000744  2100              MOVS     r1,#0                 ;353
000746  9001              STR      r0,[sp,#4]            ;353
000748  f7fffffe          BL       SendDataToServer
00074c  e029              B        |L4.1954|
                  |L4.1870|
00074e  9803              LDR      r0,[sp,#0xc]          ;355
000750  79c0              LDRB     r0,[r0,#7]            ;355
000752  2801              CMP      r0,#1                 ;355
000754  d125              BNE      |L4.1954|
000756  9803              LDR      r0,[sp,#0xc]          ;357
000758  7a80              LDRB     r0,[r0,#0xa]          ;357
00075a  2801              CMP      r0,#1                 ;357
00075c  dd0a              BLE      |L4.1908|
00075e  20aa              MOVS     r0,#0xaa              ;359
000760  9002              STR      r0,[sp,#8]            ;359
000762  9803              LDR      r0,[sp,#0xc]          ;360
000764  7880              LDRB     r0,[r0,#2]            ;360
000766  2301              MOVS     r3,#1                 ;360
000768  aa02              ADD      r2,sp,#8              ;360
00076a  4619              MOV      r1,r3                 ;360
00076c  9001              STR      r0,[sp,#4]            ;360
00076e  f7fffffe          BL       SendDataToServer
000772  e48c              B        |L4.142|
                  |L4.1908|
000774  4827              LDR      r0,|L4.2068|
000776  3816              SUBS     r0,r0,#0x16           ;363
000778  9903              LDR      r1,[sp,#0xc]          ;363
00077a  7a89              LDRB     r1,[r1,#0xa]          ;363
00077c  f880102e          STRB     r1,[r0,#0x2e]         ;363
000780  6880              LDR      r0,[r0,#8]            ;364  ; g_tParam
000782  2106              MOVS     r1,#6                 ;364
000784  9001              STR      r0,[sp,#4]            ;364
000786  4823              LDR      r0,|L4.2068|
000788  3012              ADDS     r0,r0,#0x12           ;364
00078a  9a01              LDR      r2,[sp,#4]            ;364
00078c  4790              BLX      r2                    ;364
00078e  2055              MOVS     r0,#0x55              ;365
000790  9002              STR      r0,[sp,#8]            ;365
000792  9803              LDR      r0,[sp,#0xc]          ;366
000794  7880              LDRB     r0,[r0,#2]            ;366
000796  2301              MOVS     r3,#1                 ;366
000798  aa02              ADD      r2,sp,#8              ;366
00079a  4619              MOV      r1,r3                 ;366
00079c  9001              STR      r0,[sp,#4]            ;366
00079e  f7fffffe          BL       SendDataToServer
                  |L4.1954|
0007a2  e342              B        |L4.3626|
0007a4  9803              LDR      r0,[sp,#0xc]          ;371
0007a6  79c0              LDRB     r0,[r0,#7]            ;371
0007a8  b948              CBNZ     r0,|L4.1982|
0007aa  9803              LDR      r0,[sp,#0xc]          ;373
0007ac  7880              LDRB     r0,[r0,#2]            ;373
0007ae  2301              MOVS     r3,#1                 ;373
0007b0  4a18              LDR      r2,|L4.2068|
0007b2  3219              ADDS     r2,r2,#0x19           ;373
0007b4  2100              MOVS     r1,#0                 ;373
0007b6  9001              STR      r0,[sp,#4]            ;373
0007b8  f7fffffe          BL       SendDataToServer
0007bc  e029              B        |L4.2066|
                  |L4.1982|
0007be  9803              LDR      r0,[sp,#0xc]          ;375
0007c0  79c0              LDRB     r0,[r0,#7]            ;375
0007c2  2801              CMP      r0,#1                 ;375
0007c4  d125              BNE      |L4.2066|
0007c6  9803              LDR      r0,[sp,#0xc]          ;377
0007c8  7a80              LDRB     r0,[r0,#0xa]          ;377
0007ca  2801              CMP      r0,#1                 ;377
0007cc  dd0a              BLE      |L4.2020|
0007ce  20aa              MOVS     r0,#0xaa              ;379
0007d0  9002              STR      r0,[sp,#8]            ;379
0007d2  9803              LDR      r0,[sp,#0xc]          ;380
0007d4  7880              LDRB     r0,[r0,#2]            ;380
0007d6  2301              MOVS     r3,#1                 ;380
0007d8  aa02              ADD      r2,sp,#8              ;380
0007da  4619              MOV      r1,r3                 ;380
0007dc  9001              STR      r0,[sp,#4]            ;380
0007de  f7fffffe          BL       SendDataToServer
0007e2  e454              B        |L4.142|
                  |L4.2020|
0007e4  480b              LDR      r0,|L4.2068|
0007e6  3816              SUBS     r0,r0,#0x16           ;383
0007e8  9903              LDR      r1,[sp,#0xc]          ;383
0007ea  7a89              LDRB     r1,[r1,#0xa]          ;383
0007ec  f880102f          STRB     r1,[r0,#0x2f]         ;383
0007f0  6880              LDR      r0,[r0,#8]            ;384  ; g_tParam
0007f2  2107              MOVS     r1,#7                 ;384
0007f4  9001              STR      r0,[sp,#4]            ;384
0007f6  4807              LDR      r0,|L4.2068|
0007f8  3012              ADDS     r0,r0,#0x12           ;384
0007fa  9a01              LDR      r2,[sp,#4]            ;384
0007fc  4790              BLX      r2                    ;384
0007fe  2055              MOVS     r0,#0x55              ;385
000800  9002              STR      r0,[sp,#8]            ;385
000802  9803              LDR      r0,[sp,#0xc]          ;386
000804  7880              LDRB     r0,[r0,#2]            ;386
000806  2301              MOVS     r3,#1                 ;386
000808  aa02              ADD      r2,sp,#8              ;386
00080a  4619              MOV      r1,r3                 ;386
00080c  9001              STR      r0,[sp,#4]            ;386
00080e  f7fffffe          BL       SendDataToServer
                  |L4.2066|
000812  e30a              B        |L4.3626|
                  |L4.2068|
                          DCD      g_tParam+0x16
000818  9803              LDR      r0,[sp,#0xc]          ;391
00081a  79c0              LDRB     r0,[r0,#7]            ;391
00081c  b940              CBNZ     r0,|L4.2096|
00081e  9803              LDR      r0,[sp,#0xc]          ;393
000820  7880              LDRB     r0,[r0,#2]            ;393
000822  2301              MOVS     r3,#1                 ;393
000824  4afa              LDR      r2,|L4.3088|
000826  2100              MOVS     r1,#0                 ;393
000828  9001              STR      r0,[sp,#4]            ;393
00082a  f7fffffe          BL       SendDataToServer
00082e  e029              B        |L4.2180|
                  |L4.2096|
000830  9803              LDR      r0,[sp,#0xc]          ;395
000832  79c0              LDRB     r0,[r0,#7]            ;395
000834  2801              CMP      r0,#1                 ;395
000836  d125              BNE      |L4.2180|
000838  9803              LDR      r0,[sp,#0xc]          ;397
00083a  7a80              LDRB     r0,[r0,#0xa]          ;397
00083c  2801              CMP      r0,#1                 ;397
00083e  dd0a              BLE      |L4.2134|
000840  20aa              MOVS     r0,#0xaa              ;399
000842  9002              STR      r0,[sp,#8]            ;399
000844  9803              LDR      r0,[sp,#0xc]          ;400
000846  7880              LDRB     r0,[r0,#2]            ;400
000848  2301              MOVS     r3,#1                 ;400
00084a  aa02              ADD      r2,sp,#8              ;400
00084c  4619              MOV      r1,r3                 ;400
00084e  9001              STR      r0,[sp,#4]            ;400
000850  f7fffffe          BL       SendDataToServer
000854  e41b              B        |L4.142|
                  |L4.2134|
000856  48ee              LDR      r0,|L4.3088|
000858  3830              SUBS     r0,r0,#0x30           ;403
00085a  9903              LDR      r1,[sp,#0xc]          ;403
00085c  7a89              LDRB     r1,[r1,#0xa]          ;403
00085e  f8801030          STRB     r1,[r0,#0x30]         ;403
000862  6880              LDR      r0,[r0,#8]            ;404  ; g_tParam
000864  2108              MOVS     r1,#8                 ;404
000866  9001              STR      r0,[sp,#4]            ;404
000868  48e9              LDR      r0,|L4.3088|
00086a  3808              SUBS     r0,r0,#8              ;404
00086c  9a01              LDR      r2,[sp,#4]            ;404
00086e  4790              BLX      r2                    ;404
000870  2055              MOVS     r0,#0x55              ;405
000872  9002              STR      r0,[sp,#8]            ;405
000874  9803              LDR      r0,[sp,#0xc]          ;406
000876  7880              LDRB     r0,[r0,#2]            ;406
000878  2301              MOVS     r3,#1                 ;406
00087a  aa02              ADD      r2,sp,#8              ;406
00087c  4619              MOV      r1,r3                 ;406
00087e  9001              STR      r0,[sp,#4]            ;406
000880  f7fffffe          BL       SendDataToServer
                  |L4.2180|
000884  e2d1              B        |L4.3626|
000886  9803              LDR      r0,[sp,#0xc]          ;411
000888  79c0              LDRB     r0,[r0,#7]            ;411
00088a  b948              CBNZ     r0,|L4.2208|
00088c  9803              LDR      r0,[sp,#0xc]          ;413
00088e  7880              LDRB     r0,[r0,#2]            ;413
000890  2301              MOVS     r3,#1                 ;413
000892  4adf              LDR      r2,|L4.3088|
000894  1c52              ADDS     r2,r2,#1              ;413
000896  2100              MOVS     r1,#0                 ;413
000898  9001              STR      r0,[sp,#4]            ;413
00089a  f7fffffe          BL       SendDataToServer
00089e  e029              B        |L4.2292|
                  |L4.2208|
0008a0  9803              LDR      r0,[sp,#0xc]          ;415
0008a2  79c0              LDRB     r0,[r0,#7]            ;415
0008a4  2801              CMP      r0,#1                 ;415
0008a6  d125              BNE      |L4.2292|
0008a8  9803              LDR      r0,[sp,#0xc]          ;417
0008aa  7a80              LDRB     r0,[r0,#0xa]          ;417
0008ac  2801              CMP      r0,#1                 ;417
0008ae  dd0a              BLE      |L4.2246|
0008b0  20aa              MOVS     r0,#0xaa              ;419
0008b2  9002              STR      r0,[sp,#8]            ;419
0008b4  9803              LDR      r0,[sp,#0xc]          ;420
0008b6  7880              LDRB     r0,[r0,#2]            ;420
0008b8  2301              MOVS     r3,#1                 ;420
0008ba  aa02              ADD      r2,sp,#8              ;420
0008bc  4619              MOV      r1,r3                 ;420
0008be  9001              STR      r0,[sp,#4]            ;420
0008c0  f7fffffe          BL       SendDataToServer
0008c4  e452              B        |L4.364|
                  |L4.2246|
0008c6  48d2              LDR      r0,|L4.3088|
0008c8  3830              SUBS     r0,r0,#0x30           ;423
0008ca  9903              LDR      r1,[sp,#0xc]          ;423
0008cc  7a89              LDRB     r1,[r1,#0xa]          ;423
0008ce  f8801031          STRB     r1,[r0,#0x31]         ;423
0008d2  6880              LDR      r0,[r0,#8]            ;424  ; g_tParam
0008d4  2109              MOVS     r1,#9                 ;424
0008d6  9001              STR      r0,[sp,#4]            ;424
0008d8  48cd              LDR      r0,|L4.3088|
0008da  3808              SUBS     r0,r0,#8              ;424
0008dc  9a01              LDR      r2,[sp,#4]            ;424
0008de  4790              BLX      r2                    ;424
0008e0  2055              MOVS     r0,#0x55              ;425
0008e2  9002              STR      r0,[sp,#8]            ;425
0008e4  9803              LDR      r0,[sp,#0xc]          ;426
0008e6  7880              LDRB     r0,[r0,#2]            ;426
0008e8  2301              MOVS     r3,#1                 ;426
0008ea  aa02              ADD      r2,sp,#8              ;426
0008ec  4619              MOV      r1,r3                 ;426
0008ee  9001              STR      r0,[sp,#4]            ;426
0008f0  f7fffffe          BL       SendDataToServer
                  |L4.2292|
0008f4  e299              B        |L4.3626|
0008f6  9803              LDR      r0,[sp,#0xc]          ;432
0008f8  79c0              LDRB     r0,[r0,#7]            ;432
0008fa  b948              CBNZ     r0,|L4.2320|
0008fc  9803              LDR      r0,[sp,#0xc]          ;434
0008fe  7880              LDRB     r0,[r0,#2]            ;434
000900  2303              MOVS     r3,#3                 ;434
000902  4ac3              LDR      r2,|L4.3088|
000904  1d92              ADDS     r2,r2,#6              ;434
000906  2100              MOVS     r1,#0                 ;434
000908  9001              STR      r0,[sp,#4]            ;434
00090a  f7fffffe          BL       SendDataToServer
00090e  e01e              B        |L4.2382|
                  |L4.2320|
000910  9803              LDR      r0,[sp,#0xc]          ;436
000912  79c0              LDRB     r0,[r0,#7]            ;436
000914  2801              CMP      r0,#1                 ;436
000916  d11a              BNE      |L4.2382|
000918  49bd              LDR      r1,|L4.3088|
00091a  3930              SUBS     r1,r1,#0x30           ;438
00091c  9803              LDR      r0,[sp,#0xc]          ;438
00091e  8942              LDRH     r2,[r0,#0xa]          ;438
000920  86ca              STRH     r2,[r1,#0x36]         ;438
000922  7b00              LDRB     r0,[r0,#0xc]          ;438
000924  f8810038          STRB     r0,[r1,#0x38]         ;438
000928  4608              MOV      r0,r1                 ;439
00092a  6900              LDR      r0,[r0,#0x10]         ;439  ; g_tParam
00092c  2200              MOVS     r2,#0                 ;439
00092e  2103              MOVS     r1,#3                 ;439
000930  9001              STR      r0,[sp,#4]            ;439
000932  48b7              LDR      r0,|L4.3088|
000934  1d80              ADDS     r0,r0,#6              ;439
000936  9b01              LDR      r3,[sp,#4]            ;439
000938  4798              BLX      r3                    ;439
00093a  2055              MOVS     r0,#0x55              ;440
00093c  9002              STR      r0,[sp,#8]            ;440
00093e  9803              LDR      r0,[sp,#0xc]          ;441
000940  7880              LDRB     r0,[r0,#2]            ;441
000942  2301              MOVS     r3,#1                 ;441
000944  aa02              ADD      r2,sp,#8              ;441
000946  4619              MOV      r1,r3                 ;441
000948  9001              STR      r0,[sp,#4]            ;441
00094a  f7fffffe          BL       SendDataToServer
                  |L4.2382|
00094e  e26c              B        |L4.3626|
000950  9803              LDR      r0,[sp,#0xc]          ;446
000952  79c0              LDRB     r0,[r0,#7]            ;446
000954  b948              CBNZ     r0,|L4.2410|
000956  9803              LDR      r0,[sp,#0xc]          ;448
000958  7880              LDRB     r0,[r0,#2]            ;448
00095a  2303              MOVS     r3,#3                 ;448
00095c  4aac              LDR      r2,|L4.3088|
00095e  3209              ADDS     r2,r2,#9              ;448
000960  2100              MOVS     r1,#0                 ;448
000962  9001              STR      r0,[sp,#4]            ;448
000964  f7fffffe          BL       SendDataToServer
000968  e01d              B        |L4.2470|
                  |L4.2410|
00096a  9803              LDR      r0,[sp,#0xc]          ;450
00096c  79c0              LDRB     r0,[r0,#7]            ;450
00096e  2801              CMP      r0,#1                 ;450
000970  d119              BNE      |L4.2470|
000972  48a7              LDR      r0,|L4.3088|
000974  3009              ADDS     r0,r0,#9              ;452
000976  9903              LDR      r1,[sp,#0xc]          ;452
000978  894a              LDRH     r2,[r1,#0xa]          ;452
00097a  8002              STRH     r2,[r0,#0]            ;452
00097c  7b09              LDRB     r1,[r1,#0xc]          ;452
00097e  7081              STRB     r1,[r0,#2]            ;452
000980  3839              SUBS     r0,r0,#0x39           ;453
000982  6900              LDR      r0,[r0,#0x10]         ;453  ; g_tParam
000984  2201              MOVS     r2,#1                 ;453
000986  2103              MOVS     r1,#3                 ;453
000988  9001              STR      r0,[sp,#4]            ;453
00098a  48a1              LDR      r0,|L4.3088|
00098c  3009              ADDS     r0,r0,#9              ;453
00098e  9b01              LDR      r3,[sp,#4]            ;453
000990  4798              BLX      r3                    ;453
000992  2055              MOVS     r0,#0x55              ;454
000994  9002              STR      r0,[sp,#8]            ;454
000996  9803              LDR      r0,[sp,#0xc]          ;455
000998  7880              LDRB     r0,[r0,#2]            ;455
00099a  2301              MOVS     r3,#1                 ;455
00099c  aa02              ADD      r2,sp,#8              ;455
00099e  4619              MOV      r1,r3                 ;455
0009a0  9001              STR      r0,[sp,#4]            ;455
0009a2  f7fffffe          BL       SendDataToServer
                  |L4.2470|
0009a6  e240              B        |L4.3626|
0009a8  9803              LDR      r0,[sp,#0xc]          ;460
0009aa  79c0              LDRB     r0,[r0,#7]            ;460
0009ac  b948              CBNZ     r0,|L4.2498|
0009ae  9803              LDR      r0,[sp,#0xc]          ;462
0009b0  7880              LDRB     r0,[r0,#2]            ;462
0009b2  2303              MOVS     r3,#3                 ;462
0009b4  4a96              LDR      r2,|L4.3088|
0009b6  320c              ADDS     r2,r2,#0xc            ;462
0009b8  2100              MOVS     r1,#0                 ;462
0009ba  9001              STR      r0,[sp,#4]            ;462
0009bc  f7fffffe          BL       SendDataToServer
0009c0  e01d              B        |L4.2558|
                  |L4.2498|
0009c2  9803              LDR      r0,[sp,#0xc]          ;464
0009c4  79c0              LDRB     r0,[r0,#7]            ;464
0009c6  2801              CMP      r0,#1                 ;464
0009c8  d119              BNE      |L4.2558|
0009ca  4891              LDR      r0,|L4.3088|
0009cc  3830              SUBS     r0,r0,#0x30           ;466
0009ce  9903              LDR      r1,[sp,#0xc]          ;466
0009d0  894a              LDRH     r2,[r1,#0xa]          ;466
0009d2  8782              STRH     r2,[r0,#0x3c]         ;466
0009d4  7b09              LDRB     r1,[r1,#0xc]          ;466
0009d6  f880103e          STRB     r1,[r0,#0x3e]         ;466
0009da  6900              LDR      r0,[r0,#0x10]         ;467  ; g_tParam
0009dc  2202              MOVS     r2,#2                 ;467
0009de  2103              MOVS     r1,#3                 ;467
0009e0  9001              STR      r0,[sp,#4]            ;467
0009e2  488b              LDR      r0,|L4.3088|
0009e4  300c              ADDS     r0,r0,#0xc            ;467
0009e6  9b01              LDR      r3,[sp,#4]            ;467
0009e8  4798              BLX      r3                    ;467
0009ea  2055              MOVS     r0,#0x55              ;468
0009ec  9002              STR      r0,[sp,#8]            ;468
0009ee  9803              LDR      r0,[sp,#0xc]          ;469
0009f0  7880              LDRB     r0,[r0,#2]            ;469
0009f2  2301              MOVS     r3,#1                 ;469
0009f4  aa02              ADD      r2,sp,#8              ;469
0009f6  4619              MOV      r1,r3                 ;469
0009f8  9001              STR      r0,[sp,#4]            ;469
0009fa  f7fffffe          BL       SendDataToServer
                  |L4.2558|
0009fe  e214              B        |L4.3626|
000a00  9803              LDR      r0,[sp,#0xc]          ;474
000a02  79c0              LDRB     r0,[r0,#7]            ;474
000a04  b948              CBNZ     r0,|L4.2586|
000a06  9803              LDR      r0,[sp,#0xc]          ;476
000a08  7880              LDRB     r0,[r0,#2]            ;476
000a0a  2309              MOVS     r3,#9                 ;476
000a0c  4a80              LDR      r2,|L4.3088|
000a0e  320f              ADDS     r2,r2,#0xf            ;476
000a10  2100              MOVS     r1,#0                 ;476
000a12  9001              STR      r0,[sp,#4]            ;476
000a14  f7fffffe          BL       SendDataToServer
000a18  e021              B        |L4.2654|
                  |L4.2586|
000a1a  9803              LDR      r0,[sp,#0xc]          ;478
000a1c  79c0              LDRB     r0,[r0,#7]            ;478
000a1e  2801              CMP      r0,#1                 ;478
000a20  d11d              BNE      |L4.2654|
000a22  487b              LDR      r0,|L4.3088|
000a24  3825              SUBS     r0,r0,#0x25           ;480
000a26  9903              LDR      r1,[sp,#0xc]          ;480
000a28  f8512f0a          LDR      r2,[r1,#0xa]!         ;480
000a2c  6342              STR      r2,[r0,#0x34]         ;480
000a2e  684a              LDR      r2,[r1,#4]            ;480
000a30  6382              STR      r2,[r0,#0x38]         ;480
000a32  7a09              LDRB     r1,[r1,#8]            ;480
000a34  f880103c          STRB     r1,[r0,#0x3c]         ;480
000a38  380b              SUBS     r0,r0,#0xb            ;481
000a3a  6900              LDR      r0,[r0,#0x10]         ;481  ; g_tParam
000a3c  2203              MOVS     r2,#3                 ;481
000a3e  2109              MOVS     r1,#9                 ;481
000a40  9001              STR      r0,[sp,#4]            ;481
000a42  4873              LDR      r0,|L4.3088|
000a44  300f              ADDS     r0,r0,#0xf            ;481
000a46  9b01              LDR      r3,[sp,#4]            ;481
000a48  4798              BLX      r3                    ;481
000a4a  2055              MOVS     r0,#0x55              ;482
000a4c  9002              STR      r0,[sp,#8]            ;482
000a4e  9803              LDR      r0,[sp,#0xc]          ;483
000a50  7880              LDRB     r0,[r0,#2]            ;483
000a52  2301              MOVS     r3,#1                 ;483
000a54  aa02              ADD      r2,sp,#8              ;483
000a56  4619              MOV      r1,r3                 ;483
000a58  9001              STR      r0,[sp,#4]            ;483
000a5a  f7fffffe          BL       SendDataToServer
                  |L4.2654|
000a5e  e1e4              B        |L4.3626|
000a60  9803              LDR      r0,[sp,#0xc]          ;488
000a62  79c0              LDRB     r0,[r0,#7]            ;488
000a64  b948              CBNZ     r0,|L4.2682|
000a66  9803              LDR      r0,[sp,#0xc]          ;490
000a68  7880              LDRB     r0,[r0,#2]            ;490
000a6a  2303              MOVS     r3,#3                 ;490
000a6c  4a68              LDR      r2,|L4.3088|
000a6e  3218              ADDS     r2,r2,#0x18           ;490
000a70  2100              MOVS     r1,#0                 ;490
000a72  9001              STR      r0,[sp,#4]            ;490
000a74  f7fffffe          BL       SendDataToServer
000a78  e01d              B        |L4.2742|
                  |L4.2682|
000a7a  9803              LDR      r0,[sp,#0xc]          ;492
000a7c  79c0              LDRB     r0,[r0,#7]            ;492
000a7e  2801              CMP      r0,#1                 ;492
000a80  d119              BNE      |L4.2742|
000a82  4863              LDR      r0,|L4.3088|
000a84  1d80              ADDS     r0,r0,#6              ;494
000a86  9903              LDR      r1,[sp,#0xc]          ;494
000a88  894a              LDRH     r2,[r1,#0xa]          ;494
000a8a  8242              STRH     r2,[r0,#0x12]         ;494
000a8c  7b09              LDRB     r1,[r1,#0xc]          ;494
000a8e  7501              STRB     r1,[r0,#0x14]         ;494
000a90  3836              SUBS     r0,r0,#0x36           ;495
000a92  6900              LDR      r0,[r0,#0x10]         ;495  ; g_tParam
000a94  2204              MOVS     r2,#4                 ;495
000a96  2103              MOVS     r1,#3                 ;495
000a98  9001              STR      r0,[sp,#4]            ;495
000a9a  485d              LDR      r0,|L4.3088|
000a9c  3018              ADDS     r0,r0,#0x18           ;495
000a9e  9b01              LDR      r3,[sp,#4]            ;495
000aa0  4798              BLX      r3                    ;495
000aa2  2055              MOVS     r0,#0x55              ;496
000aa4  9002              STR      r0,[sp,#8]            ;496
000aa6  9803              LDR      r0,[sp,#0xc]          ;497
000aa8  7880              LDRB     r0,[r0,#2]            ;497
000aaa  2301              MOVS     r3,#1                 ;497
000aac  aa02              ADD      r2,sp,#8              ;497
000aae  4619              MOV      r1,r3                 ;497
000ab0  9001              STR      r0,[sp,#4]            ;497
000ab2  f7fffffe          BL       SendDataToServer
                  |L4.2742|
000ab6  e1b8              B        |L4.3626|
000ab8  9803              LDR      r0,[sp,#0xc]          ;502
000aba  79c0              LDRB     r0,[r0,#7]            ;502
000abc  b948              CBNZ     r0,|L4.2770|
000abe  9803              LDR      r0,[sp,#0xc]          ;504
000ac0  7880              LDRB     r0,[r0,#2]            ;504
000ac2  2303              MOVS     r3,#3                 ;504
000ac4  4a52              LDR      r2,|L4.3088|
000ac6  321b              ADDS     r2,r2,#0x1b           ;504
000ac8  2100              MOVS     r1,#0                 ;504
000aca  9001              STR      r0,[sp,#4]            ;504
000acc  f7fffffe          BL       SendDataToServer
000ad0  e01d              B        |L4.2830|
                  |L4.2770|
000ad2  9803              LDR      r0,[sp,#0xc]          ;506
000ad4  79c0              LDRB     r0,[r0,#7]            ;506
000ad6  2801              CMP      r0,#1                 ;506
000ad8  d119              BNE      |L4.2830|
000ada  484d              LDR      r0,|L4.3088|
000adc  301b              ADDS     r0,r0,#0x1b           ;508
000ade  9903              LDR      r1,[sp,#0xc]          ;508
000ae0  894a              LDRH     r2,[r1,#0xa]          ;508
000ae2  8002              STRH     r2,[r0,#0]            ;508
000ae4  7b09              LDRB     r1,[r1,#0xc]          ;508
000ae6  7081              STRB     r1,[r0,#2]            ;508
000ae8  384b              SUBS     r0,r0,#0x4b           ;509
000aea  6900              LDR      r0,[r0,#0x10]         ;509  ; g_tParam
000aec  2205              MOVS     r2,#5                 ;509
000aee  2103              MOVS     r1,#3                 ;509
000af0  9001              STR      r0,[sp,#4]            ;509
000af2  4847              LDR      r0,|L4.3088|
000af4  301b              ADDS     r0,r0,#0x1b           ;509
000af6  9b01              LDR      r3,[sp,#4]            ;509
000af8  4798              BLX      r3                    ;509
000afa  2055              MOVS     r0,#0x55              ;510
000afc  9002              STR      r0,[sp,#8]            ;510
000afe  9803              LDR      r0,[sp,#0xc]          ;511
000b00  7880              LDRB     r0,[r0,#2]            ;511
000b02  2301              MOVS     r3,#1                 ;511
000b04  aa02              ADD      r2,sp,#8              ;511
000b06  4619              MOV      r1,r3                 ;511
000b08  9001              STR      r0,[sp,#4]            ;511
000b0a  f7fffffe          BL       SendDataToServer
                  |L4.2830|
000b0e  e18c              B        |L4.3626|
000b10  9803              LDR      r0,[sp,#0xc]          ;516
000b12  79c0              LDRB     r0,[r0,#7]            ;516
000b14  b948              CBNZ     r0,|L4.2858|
000b16  9803              LDR      r0,[sp,#0xc]          ;518
000b18  7880              LDRB     r0,[r0,#2]            ;518
000b1a  231e              MOVS     r3,#0x1e              ;518
000b1c  4a3c              LDR      r2,|L4.3088|
000b1e  321e              ADDS     r2,r2,#0x1e           ;518
000b20  2100              MOVS     r1,#0                 ;518
000b22  9001              STR      r0,[sp,#4]            ;518
000b24  f7fffffe          BL       SendDataToServer
000b28  e01e              B        |L4.2920|
                  |L4.2858|
000b2a  9803              LDR      r0,[sp,#0xc]          ;520
000b2c  79c0              LDRB     r0,[r0,#7]            ;520
000b2e  2801              CMP      r0,#1                 ;520
000b30  d11a              BNE      |L4.2920|
000b32  221e              MOVS     r2,#0x1e              ;522
000b34  9903              LDR      r1,[sp,#0xc]          ;522
000b36  310a              ADDS     r1,r1,#0xa            ;522
000b38  4835              LDR      r0,|L4.3088|
000b3a  301e              ADDS     r0,r0,#0x1e           ;522
000b3c  f7fffffe          BL       __aeabi_memcpy
000b40  4833              LDR      r0,|L4.3088|
000b42  3830              SUBS     r0,r0,#0x30           ;523
000b44  6900              LDR      r0,[r0,#0x10]         ;523  ; g_tParam
000b46  2206              MOVS     r2,#6                 ;523
000b48  211e              MOVS     r1,#0x1e              ;523
000b4a  9001              STR      r0,[sp,#4]            ;523
000b4c  4830              LDR      r0,|L4.3088|
000b4e  301e              ADDS     r0,r0,#0x1e           ;523
000b50  9b01              LDR      r3,[sp,#4]            ;523
000b52  4798              BLX      r3                    ;523
000b54  2055              MOVS     r0,#0x55              ;524
000b56  9002              STR      r0,[sp,#8]            ;524
000b58  9803              LDR      r0,[sp,#0xc]          ;525
000b5a  7880              LDRB     r0,[r0,#2]            ;525
000b5c  2301              MOVS     r3,#1                 ;525
000b5e  aa02              ADD      r2,sp,#8              ;525
000b60  4619              MOV      r1,r3                 ;525
000b62  9001              STR      r0,[sp,#4]            ;525
000b64  f7fffffe          BL       SendDataToServer
                  |L4.2920|
000b68  e15f              B        |L4.3626|
000b6a  9803              LDR      r0,[sp,#0xc]          ;530
000b6c  79c0              LDRB     r0,[r0,#7]            ;530
000b6e  b9e0              CBNZ     r0,|L4.2986|
000b70  9803              LDR      r0,[sp,#0xc]          ;532
000b72  7a40              LDRB     r0,[r0,#9]            ;532
000b74  ebc01000          RSB      r0,r0,r0,LSL #4       ;532
000b78  eb000180          ADD      r1,r0,r0,LSL #2       ;532
000b7c  4824              LDR      r0,|L4.3088|
000b7e  303c              ADDS     r0,r0,#0x3c           ;532
000b80  eb000081          ADD      r0,r0,r1,LSL #2       ;532
000b84  f44f7296          MOV      r2,#0x12c             ;532
000b88  4601              MOV      r1,r0                 ;532
000b8a  9001              STR      r0,[sp,#4]            ;532
000b8c  9803              LDR      r0,[sp,#0xc]          ;532
000b8e  300a              ADDS     r0,r0,#0xa            ;532
000b90  f7fffffe          BL       __aeabi_memcpy
000b94  9803              LDR      r0,[sp,#0xc]          ;533
000b96  7880              LDRB     r0,[r0,#2]            ;533
000b98  f44f7396          MOV      r3,#0x12c             ;533
000b9c  9001              STR      r0,[sp,#4]            ;533
000b9e  9a03              LDR      r2,[sp,#0xc]          ;533
000ba0  320a              ADDS     r2,r2,#0xa            ;533
000ba2  2100              MOVS     r1,#0                 ;533
000ba4  f7fffffe          BL       SendDataToServer
000ba8  e031              B        |L4.3086|
                  |L4.2986|
000baa  9803              LDR      r0,[sp,#0xc]          ;535
000bac  79c0              LDRB     r0,[r0,#7]            ;535
000bae  2801              CMP      r0,#1                 ;535
000bb0  d12d              BNE      |L4.3086|
000bb2  9803              LDR      r0,[sp,#0xc]          ;537
000bb4  7a40              LDRB     r0,[r0,#9]            ;537
000bb6  2804              CMP      r0,#4                 ;537
000bb8  dc10              BGT      |L4.3036|
000bba  9803              LDR      r0,[sp,#0xc]          ;539
000bbc  7a40              LDRB     r0,[r0,#9]            ;539
000bbe  ebc01000          RSB      r0,r0,r0,LSL #4       ;539
000bc2  eb000180          ADD      r1,r0,r0,LSL #2       ;539
000bc6  4812              LDR      r0,|L4.3088|
000bc8  303c              ADDS     r0,r0,#0x3c           ;539
000bca  eb000081          ADD      r0,r0,r1,LSL #2       ;539
000bce  f44f7296          MOV      r2,#0x12c             ;539
000bd2  9001              STR      r0,[sp,#4]            ;539
000bd4  9903              LDR      r1,[sp,#0xc]          ;539
000bd6  310a              ADDS     r1,r1,#0xa            ;539
000bd8  f7fffffe          BL       __aeabi_memcpy
                  |L4.3036|
000bdc  9803              LDR      r0,[sp,#0xc]          ;541
000bde  7a40              LDRB     r0,[r0,#9]            ;541
000be0  2804              CMP      r0,#4                 ;541
000be2  d10a              BNE      |L4.3066|
000be4  480a              LDR      r0,|L4.3088|
000be6  3830              SUBS     r0,r0,#0x30           ;544
000be8  6900              LDR      r0,[r0,#0x10]         ;544  ; g_tParam
000bea  2208              MOVS     r2,#8                 ;544
000bec  f24051dc          MOV      r1,#0x5dc             ;544
000bf0  9001              STR      r0,[sp,#4]            ;544
000bf2  4807              LDR      r0,|L4.3088|
000bf4  303c              ADDS     r0,r0,#0x3c           ;544
000bf6  9b01              LDR      r3,[sp,#4]            ;544
000bf8  4798              BLX      r3                    ;544
                  |L4.3066|
000bfa  2055              MOVS     r0,#0x55              ;546
000bfc  9002              STR      r0,[sp,#8]            ;546
000bfe  9803              LDR      r0,[sp,#0xc]          ;547
000c00  7880              LDRB     r0,[r0,#2]            ;547
000c02  2301              MOVS     r3,#1                 ;547
000c04  aa02              ADD      r2,sp,#8              ;547
000c06  4619              MOV      r1,r3                 ;547
000c08  9001              STR      r0,[sp,#4]            ;547
000c0a  f7fffffe          BL       SendDataToServer
                  |L4.3086|
000c0e  e10c              B        |L4.3626|
                  |L4.3088|
                          DCD      g_tParam+0x30
000c14  9803              LDR      r0,[sp,#0xc]          ;552
000c16  79c0              LDRB     r0,[r0,#7]            ;552
000c18  b9d8              CBNZ     r0,|L4.3154|
000c1a  9803              LDR      r0,[sp,#0xc]          ;554
000c1c  7a40              LDRB     r0,[r0,#9]            ;554
000c1e  ebc01000          RSB      r0,r0,r0,LSL #4       ;554
000c22  eb000180          ADD      r1,r0,r0,LSL #2       ;554
000c26  4882              LDR      r0,|L4.3632|
000c28  eb000081          ADD      r0,r0,r1,LSL #2       ;554
000c2c  f44f7296          MOV      r2,#0x12c             ;554
000c30  4601              MOV      r1,r0                 ;554
000c32  9001              STR      r0,[sp,#4]            ;554
000c34  9803              LDR      r0,[sp,#0xc]          ;554
000c36  300a              ADDS     r0,r0,#0xa            ;554
000c38  f7fffffe          BL       __aeabi_memcpy
000c3c  9803              LDR      r0,[sp,#0xc]          ;555
000c3e  7880              LDRB     r0,[r0,#2]            ;555
000c40  f44f7396          MOV      r3,#0x12c             ;555
000c44  9001              STR      r0,[sp,#4]            ;555
000c46  9a03              LDR      r2,[sp,#0xc]          ;555
000c48  320a              ADDS     r2,r2,#0xa            ;555
000c4a  2100              MOVS     r1,#0                 ;555
000c4c  f7fffffe          BL       SendDataToServer
000c50  e02e              B        |L4.3248|
                  |L4.3154|
000c52  9803              LDR      r0,[sp,#0xc]          ;557
000c54  79c0              LDRB     r0,[r0,#7]            ;557
000c56  2801              CMP      r0,#1                 ;557
000c58  d12a              BNE      |L4.3248|
000c5a  9803              LDR      r0,[sp,#0xc]          ;559
000c5c  7a40              LDRB     r0,[r0,#9]            ;559
000c5e  2804              CMP      r0,#4                 ;559
000c60  dc0f              BGT      |L4.3202|
000c62  9803              LDR      r0,[sp,#0xc]          ;561
000c64  7a40              LDRB     r0,[r0,#9]            ;561
000c66  ebc01000          RSB      r0,r0,r0,LSL #4       ;561
000c6a  eb000180          ADD      r1,r0,r0,LSL #2       ;561
000c6e  4870              LDR      r0,|L4.3632|
000c70  eb000081          ADD      r0,r0,r1,LSL #2       ;561
000c74  f44f7296          MOV      r2,#0x12c             ;561
000c78  9001              STR      r0,[sp,#4]            ;561
000c7a  9903              LDR      r1,[sp,#0xc]          ;561
000c7c  310a              ADDS     r1,r1,#0xa            ;561
000c7e  f7fffffe          BL       __aeabi_memcpy
                  |L4.3202|
000c82  9803              LDR      r0,[sp,#0xc]          ;563
000c84  7a40              LDRB     r0,[r0,#9]            ;563
000c86  2804              CMP      r0,#4                 ;563
000c88  d108              BNE      |L4.3228|
000c8a  486a              LDR      r0,|L4.3636|
000c8c  6900              LDR      r0,[r0,#0x10]         ;566  ; g_tParam
000c8e  2207              MOVS     r2,#7                 ;566
000c90  f24051dc          MOV      r1,#0x5dc             ;566
000c94  9001              STR      r0,[sp,#4]            ;566
000c96  4866              LDR      r0,|L4.3632|
000c98  9b01              LDR      r3,[sp,#4]            ;566
000c9a  4798              BLX      r3                    ;566
                  |L4.3228|
000c9c  2055              MOVS     r0,#0x55              ;568
000c9e  9002              STR      r0,[sp,#8]            ;568
000ca0  9803              LDR      r0,[sp,#0xc]          ;569
000ca2  7880              LDRB     r0,[r0,#2]            ;569
000ca4  2301              MOVS     r3,#1                 ;569
000ca6  aa02              ADD      r2,sp,#8              ;569
000ca8  4619              MOV      r1,r3                 ;569
000caa  9001              STR      r0,[sp,#4]            ;569
000cac  f7fffffe          BL       SendDataToServer
                  |L4.3248|
000cb0  e0bb              B        |L4.3626|
000cb2  9803              LDR      r0,[sp,#0xc]          ;577
000cb4  7a40              LDRB     r0,[r0,#9]            ;577
000cb6  17c1              ASRS     r1,r0,#31             ;577
000cb8  9001              STR      r0,[sp,#4]            ;577
000cba  eb007091          ADD      r0,r0,r1,LSR #30      ;577
000cbe  1081              ASRS     r1,r0,#2              ;577
000cc0  9801              LDR      r0,[sp,#4]            ;577
000cc2  ebb00081          SUBS     r0,r0,r1,LSL #2       ;577
000cc6  d105              BNE      |L4.3284|
000cc8  9803              LDR      r0,[sp,#0xc]          ;579
000cca  7a40              LDRB     r0,[r0,#9]            ;579
000ccc  0280              LSLS     r0,r0,#10             ;579
000cce  9001              STR      r0,[sp,#4]            ;579
000cd0  f7fffffe          BL       sf_EraseSector
                  |L4.3284|
000cd4  9803              LDR      r0,[sp,#0xc]          ;581
000cd6  7a40              LDRB     r0,[r0,#9]            ;581
000cd8  0280              LSLS     r0,r0,#10             ;581
000cda  f44f6280          MOV      r2,#0x400             ;581
000cde  4601              MOV      r1,r0                 ;581
000ce0  9001              STR      r0,[sp,#4]            ;581
000ce2  9803              LDR      r0,[sp,#0xc]          ;581
000ce4  300a              ADDS     r0,r0,#0xa            ;581
000ce6  f7fffffe          BL       sf_PageWrite
000cea  2055              MOVS     r0,#0x55              ;582
000cec  9002              STR      r0,[sp,#8]            ;582
000cee  9803              LDR      r0,[sp,#0xc]          ;583
000cf0  7880              LDRB     r0,[r0,#2]            ;583
000cf2  2301              MOVS     r3,#1                 ;583
000cf4  aa02              ADD      r2,sp,#8              ;583
000cf6  4619              MOV      r1,r3                 ;583
000cf8  9001              STR      r0,[sp,#4]            ;583
000cfa  f7fffffe          BL       SendDataToServer
000cfe  e094              B        |L4.3626|
000d00  f7fffffe          BL       resetParam
000d04  2055              MOVS     r0,#0x55              ;589
000d06  9002              STR      r0,[sp,#8]            ;589
000d08  9803              LDR      r0,[sp,#0xc]          ;590
000d0a  7880              LDRB     r0,[r0,#2]            ;590
000d0c  2301              MOVS     r3,#1                 ;590
000d0e  aa02              ADD      r2,sp,#8              ;590
000d10  4619              MOV      r1,r3                 ;590
000d12  9001              STR      r0,[sp,#4]            ;590
000d14  f7fffffe          BL       SendDataToServer
000d18  e087              B        |L4.3626|
000d1a  9803              LDR      r0,[sp,#0xc]          ;594
000d1c  7a80              LDRB     r0,[r0,#0xa]          ;594
000d1e  2801              CMP      r0,#1                 ;594
000d20  d112              BNE      |L4.3400|
000d22  4845              LDR      r0,|L4.3640|
000d24  7800              LDRB     r0,[r0,#0]            ;594  ; g_tDoorStatus
000d26  b978              CBNZ     r0,|L4.3400|
000d28  4843              LDR      r0,|L4.3640|
000d2a  7880              LDRB     r0,[r0,#2]            ;594  ; g_tDoorStatus
000d2c  b960              CBNZ     r0,|L4.3400|
000d2e  9803              LDR      r0,[sp,#0xc]          ;596
000d30  7a80              LDRB     r0,[r0,#0xa]          ;596
000d32  4942              LDR      r1,|L4.3644|
000d34  7048              STRB     r0,[r1,#1]            ;596
000d36  4842              LDR      r0,|L4.3648|
000d38  6801              LDR      r1,[r0,#0]            ;598  ; HandleTaskButton
000d3a  2008              MOVS     r0,#8                 ;598
000d3c  f8dfc104          LDR      r12,|L4.3652|
000d40  df00              SVC      #0x0                  ;598
000d42  2055              MOVS     r0,#0x55              ;599
000d44  9002              STR      r0,[sp,#8]            ;599
000d46  e018              B        |L4.3450|
                  |L4.3400|
000d48  9803              LDR      r0,[sp,#0xc]          ;601
000d4a  7a80              LDRB     r0,[r0,#0xa]          ;601
000d4c  2810              CMP      r0,#0x10              ;601
000d4e  d112              BNE      |L4.3446|
000d50  4839              LDR      r0,|L4.3640|
000d52  7800              LDRB     r0,[r0,#0]            ;601  ; g_tDoorStatus
000d54  b978              CBNZ     r0,|L4.3446|
000d56  4838              LDR      r0,|L4.3640|
000d58  7880              LDRB     r0,[r0,#2]            ;601  ; g_tDoorStatus
000d5a  b960              CBNZ     r0,|L4.3446|
000d5c  9803              LDR      r0,[sp,#0xc]          ;603
000d5e  7a80              LDRB     r0,[r0,#0xa]          ;603
000d60  4936              LDR      r1,|L4.3644|
000d62  7048              STRB     r0,[r1,#1]            ;603
000d64  4836              LDR      r0,|L4.3648|
000d66  6801              LDR      r1,[r0,#0]            ;605  ; HandleTaskButton
000d68  2008              MOVS     r0,#8                 ;605
000d6a  f8dfc0d8          LDR      r12,|L4.3652|
000d6e  df00              SVC      #0x0                  ;605
000d70  2055              MOVS     r0,#0x55              ;606
000d72  9002              STR      r0,[sp,#8]            ;606
000d74  e001              B        |L4.3450|
                  |L4.3446|
000d76  20aa              MOVS     r0,#0xaa              ;608
000d78  9002              STR      r0,[sp,#8]            ;608
                  |L4.3450|
000d7a  9803              LDR      r0,[sp,#0xc]          ;609
000d7c  7880              LDRB     r0,[r0,#2]            ;609
000d7e  2301              MOVS     r3,#1                 ;609
000d80  aa02              ADD      r2,sp,#8              ;609
000d82  4619              MOV      r1,r3                 ;609
000d84  9001              STR      r0,[sp,#4]            ;609
000d86  f7fffffe          BL       SendDataToServer
000d8a  e04e              B        |L4.3626|
000d8c  2055              MOVS     r0,#0x55              ;613
000d8e  9002              STR      r0,[sp,#8]            ;613
000d90  9803              LDR      r0,[sp,#0xc]          ;614
000d92  7880              LDRB     r0,[r0,#2]            ;614
000d94  2301              MOVS     r3,#1                 ;614
000d96  aa02              ADD      r2,sp,#8              ;614
000d98  4619              MOV      r1,r3                 ;614
000d9a  9001              STR      r0,[sp,#4]            ;614
000d9c  f7fffffe          BL       SendDataToServer
000da0  2100              MOVS     r1,#0                 ;616
000da2  2001              MOVS     r0,#1                 ;616
000da4  f7fffffe          BL       ee_WriteOneBytes
000da8  f7fffffe          BL       MCU_Reset
000dac  9803              LDR      r0,[sp,#0xc]          ;626
000dae  7a41              LDRB     r1,[r0,#9]            ;626
000db0  7a00              LDRB     r0,[r0,#8]            ;626
000db2  eb012000          ADD      r0,r1,r0,LSL #8       ;626
000db6  4924              LDR      r1,|L4.3656|
000db8  6949              LDR      r1,[r1,#0x14]         ;626  ; g_tSF
000dba  f44f7280          MOV      r2,#0x100             ;626
000dbe  ebc22191          RSB      r1,r2,r1,LSR #10      ;626
000dc2  4288              CMP      r0,r1                 ;626
000dc4  d90a              BLS      |L4.3548|
000dc6  20aa              MOVS     r0,#0xaa              ;628
000dc8  9002              STR      r0,[sp,#8]            ;628
000dca  9803              LDR      r0,[sp,#0xc]          ;629
000dcc  7880              LDRB     r0,[r0,#2]            ;629
000dce  2301              MOVS     r3,#1                 ;629
000dd0  aa02              ADD      r2,sp,#8              ;629
000dd2  2100              MOVS     r1,#0                 ;629
000dd4  9001              STR      r0,[sp,#4]            ;629
000dd6  f7fffffe          BL       SendDataToServer
000dda  e019              B        |L4.3600|
                  |L4.3548|
000ddc  9803              LDR      r0,[sp,#0xc]          ;633
000dde  7a41              LDRB     r1,[r0,#9]            ;633
000de0  7a00              LDRB     r0,[r0,#8]            ;633
000de2  eb012000          ADD      r0,r1,r0,LSL #8       ;633
000de6  f5007080          ADD      r0,r0,#0x100          ;633
000dea  0280              LSLS     r0,r0,#10             ;633
000dec  f44f6280          MOV      r2,#0x400             ;633
000df0  4601              MOV      r1,r0                 ;633
000df2  9001              STR      r0,[sp,#4]            ;633
000df4  9803              LDR      r0,[sp,#0xc]          ;633
000df6  300a              ADDS     r0,r0,#0xa            ;633
000df8  f7fffffe          BL       sf_ReadBuffer
000dfc  9803              LDR      r0,[sp,#0xc]          ;634
000dfe  7880              LDRB     r0,[r0,#2]            ;634
000e00  f44f6380          MOV      r3,#0x400             ;634
000e04  9001              STR      r0,[sp,#4]            ;634
000e06  9a03              LDR      r2,[sp,#0xc]          ;634
000e08  320a              ADDS     r2,r2,#0xa            ;634
000e0a  2100              MOVS     r1,#0                 ;634
000e0c  f7fffffe          BL       SendDataToServer
                  |L4.3600|
000e10  e00b              B        |L4.3626|
000e12  2010              MOVS     r0,#0x10              ;639
000e14  9002              STR      r0,[sp,#8]            ;639
000e16  9803              LDR      r0,[sp,#0xc]          ;640
000e18  7880              LDRB     r0,[r0,#2]            ;640
000e1a  2301              MOVS     r3,#1                 ;640
000e1c  aa02              ADD      r2,sp,#8              ;640
000e1e  4619              MOV      r1,r3                 ;640
000e20  9001              STR      r0,[sp,#4]            ;640
000e22  f7fffffe          BL       SendDataToServer
000e26  e000              B        |L4.3626|
                  |L4.3624|
000e28  bf00              NOP                            ;644
                  |L4.3626|
000e2a  bf00              NOP                            ;105
000e2c  bf00              NOP      
000e2e  e430              B        |L4.1682|
;;;647    
                          ENDP

                  |L4.3632|
                          DCD      g_tParam+0x648
                  |L4.3636|
                          DCD      g_tParam
                  |L4.3640|
                          DCD      g_tDoorStatus
                  |L4.3644|
                          DCD      g_tRunInfo
                  |L4.3648|
                          DCD      HandleTaskButton
                  |L4.3652|
                          DCD      rt_evt_set
                  |L4.3656|
                          DCD      g_tSF

                          AREA ||.bss||, DATA, NOINIT, ALIGN=1

                  g_tNetData
                          %        1042

;*** Start embedded assembler ***

#line 1 "..\\..\\User\\Protocal\\protocal.c"
	AREA ||.rev16_text||, CODE, READONLY
	THUMB
	EXPORT |__asm___10_protocal_c_b58d2e96____REV16|
#line 114 "..\\..\\Libraries\\CMSIS\\Include\\core_cmInstr.h"
|__asm___10_protocal_c_b58d2e96____REV16| PROC
#line 115

 rev16 r0, r0
 bx lr
	ENDP
	AREA ||.revsh_text||, CODE, READONLY
	THUMB
	EXPORT |__asm___10_protocal_c_b58d2e96____REVSH|
#line 128
|__asm___10_protocal_c_b58d2e96____REVSH| PROC
#line 129

 revsh r0, r0
 bx lr
	ENDP

;*** End   embedded assembler ***
